************************************************************************
Hook mode: Usermode
Hook type: Import Address Table (IAT)
Process: 1752 (explorer.exe)
Victim module: Explorer.EXE (0x1000000 - 0x10ff000)
Function: kernel32.dll!CreateProcessW
Hook address: 0x339e325
Hooking module: <unknown>

Disassembly(0):
0x339e325 55               PUSH EBP
0x339e326 8bec             MOV EBP, ESP
0x339e328 8b451c           MOV EAX, [EBP+0x1c]
0x339e32b 56               PUSH ESI
0x339e32c 8b752c           MOV ESI, [EBP+0x2c]
0x339e32f 57               PUSH EDI
0x339e330 56               PUSH ESI
0x339e331 ff7528           PUSH DWORD [EBP+0x28]
0x339e334 83c804           OR EAX, 0x4
0x339e337 ff7524           PUSH DWORD [EBP+0x24]
0x339e33a ff7520           PUSH DWORD [EBP+0x20]

************************************************************************
Hook mode: Usermode
Hook type: Import Address Table (IAT)
Process: 1752 (explorer.exe)
Victim module: Explorer.EXE (0x1000000 - 0x10ff000)
Function: kernel32.dll!HeapDestroy
Hook address: 0x339e231
Hooking module: <unknown>

Disassembly(0):
0x339e231 55               PUSH EBP
0x339e232 8bec             MOV EBP, ESP
0x339e234 51               PUSH ECX
0x339e235 e8ffa9feff       CALL 0x3388c39
0x339e23a ff7508           PUSH DWORD [EBP+0x8]
0x339e23d ff1548ff4003     CALL DWORD [0x340ff48]
0x339e243 59               POP ECX
0x339e244 5d               POP EBP
0x339e245 c20400           RET 0x4
0x339e248 55               PUSH EBP

************************************************************************
Hook mode: Usermode
Hook type: Import Address Table (IAT)
Process: 1752 (explorer.exe)
Victim module: Explorer.EXE (0x1000000 - 0x10ff000)
Function: user32.dll!ExitWindowsEx
Hook address: 0x33adb80
Hooking module: <unknown>

Disassembly(0):
0x33adb80 55               PUSH EBP
0x33adb81 8bec             MOV EBP, ESP
0x33adb83 51               PUSH ECX
0x33adb84 56               PUSH ESI
0x33adb85 ff152c143e03     CALL DWORD [0x33e142c]
0x33adb8b 2b0518004103     SUB EAX, [0x3410018]
0x33adb91 3dc0d40100       CMP EAX, 0x1d4c0
0x33adb96 762d             JBE 0x33adbc5

************************************************************************
Hook mode: Usermode
Hook type: Import Address Table (IAT)
Process: 1752 (explorer.exe)
Victim module: Explorer.EXE (0x1000000 - 0x10ff000)
Function: user32.dll!GetMessageW
Hook address: 0x33adbd7
Hooking module: <unknown>

Disassembly(0):
0x33adbd7 55               PUSH EBP
0x33adbd8 8bec             MOV EBP, ESP
0x33adbda 833d5c00410300   CMP DWORD [0x341005c], 0x0
0x33adbe1 56               PUSH ESI
0x33adbe2 8b7508           MOV ESI, [EBP+0x8]
0x33adbe5 57               PUSH EDI
0x33adbe6 7412             JZ 0x33adbfa
0x33adbe8 8b4604           MOV EAX, [ESI+0x4]
0x33adbeb 83f812           CMP EAX, 0x12
0x33adbee 74               DB 0x74

************************************************************************
Hook mode: Usermode
Hook type: Import Address Table (IAT)
Process: 1752 (explorer.exe)
Victim module: kernel32.dll (0x7c800000 - 0x7c8f6000)
Function: ntdll.dll!NtEnumerateValueKey
Hook address: 0x339ec38
Hooking module: <unknown>

Disassembly(0):
0x339ec38 55               PUSH EBP
0x339ec39 8bec             MOV EBP, ESP
0x339ec3b 83ec18           SUB ESP, 0x18
0x339ec3e 837d0c00         CMP DWORD [EBP+0xc], 0x0
0x339ec42 7507             JNZ 0x339ec4b
0x339ec44 83254cff400300   AND DWORD [0x340ff4c], 0x0
0x339ec4b 53               PUSH EBX
0x339ec4c 8b5d14           MOV EBX, [EBP+0x14]
0x339ec4f 56               PUSH ESI

************************************************************************
Hook mode: Usermode
Hook type: Import Address Table (IAT)
Process: 1752 (explorer.exe)
Victim module: kernel32.dll (0x7c800000 - 0x7c8f6000)
Function: ntdll.dll!NtQueryDirectoryFile
Hook address: 0x339e6b0
Hooking module: <unknown>

Disassembly(0):
0x339e6b0 b889ce3d03       MOV EAX, 0x33dce89
0x339e6b5 e8426b0300       CALL 0x33d51fc
0x339e6ba 51               PUSH ECX
0x339e6bb b868110000       MOV EAX, 0x1168
0x339e6c0 e81bdf0200       CALL 0x33cc5e0
0x339e6c5 53               PUSH EBX
0x339e6c6 56               PUSH ESI
0x339e6c7 57               PUSH EDI

************************************************************************
Hook mode: Usermode
Hook type: Import Address Table (IAT)
Process: 1752 (explorer.exe)
Victim module: ADVAPI32.dll (0x77dd0000 - 0x77e6b000)
Function: ntdll.dll!NtEnumerateValueKey
Hook address: 0x339ec38
Hooking module: <unknown>

Disassembly(0):
0x339ec38 55               PUSH EBP
0x339ec39 8bec             MOV EBP, ESP
0x339ec3b 83ec18           SUB ESP, 0x18
0x339ec3e 837d0c00         CMP DWORD [EBP+0xc], 0x0
0x339ec42 7507             JNZ 0x339ec4b
0x339ec44 83254cff400300   AND DWORD [0x340ff4c], 0x0
0x339ec4b 53               PUSH EBX
0x339ec4c 8b5d14           MOV EBX, [EBP+0x14]
0x339ec4f 56               PUSH ESI

************************************************************************
Hook mode: Usermode
Hook type: Import Address Table (IAT)
Process: 1752 (explorer.exe)
Victim module: BROWSEUI.dll (0x75f80000 - 0x7607d000)
Function: kernel32.dll!HeapDestroy
Hook address: 0x339e231
Hooking module: <unknown>

Disassembly(0):
0x339e231 55               PUSH EBP
0x339e232 8bec             MOV EBP, ESP
0x339e234 51               PUSH ECX
0x339e235 e8ffa9feff       CALL 0x3388c39
0x339e23a ff7508           PUSH DWORD [EBP+0x8]
0x339e23d ff1548ff4003     CALL DWORD [0x340ff48]
0x339e243 59               POP ECX
0x339e244 5d               POP EBP
0x339e245 c20400           RET 0x4
0x339e248 55               PUSH EBP

************************************************************************
Hook mode: Usermode
Hook type: Import Address Table (IAT)
Process: 1752 (explorer.exe)
Victim module: USER32.dll (0x7e410000 - 0x7e4a1000)
Function: ntdll.dll!NtEnumerateValueKey
Hook address: 0x339ec38
Hooking module: <unknown>

Disassembly(0):
0x339ec38 55               PUSH EBP
0x339ec39 8bec             MOV EBP, ESP
0x339ec3b 83ec18           SUB ESP, 0x18
0x339ec3e 837d0c00         CMP DWORD [EBP+0xc], 0x0
0x339ec42 7507             JNZ 0x339ec4b
0x339ec44 83254cff400300   AND DWORD [0x340ff4c], 0x0
0x339ec4b 53               PUSH EBX
0x339ec4c 8b5d14           MOV EBX, [EBP+0x14]
0x339ec4f 56               PUSH ESI

************************************************************************
Hook mode: Usermode
Hook type: Import Address Table (IAT)
Process: 1752 (explorer.exe)
Victim module: USER32.dll (0x7e410000 - 0x7e4a1000)
Function: kernel32.dll!CreateProcessW
Hook address: 0x339e325
Hooking module: <unknown>

Disassembly(0):
0x339e325 55               PUSH EBP
0x339e326 8bec             MOV EBP, ESP
0x339e328 8b451c           MOV EAX, [EBP+0x1c]
0x339e32b 56               PUSH ESI
0x339e32c 8b752c           MOV ESI, [EBP+0x2c]
0x339e32f 57               PUSH EDI
0x339e330 56               PUSH ESI
0x339e331 ff7528           PUSH DWORD [EBP+0x28]
0x339e334 83c804           OR EAX, 0x4
0x339e337 ff7524           PUSH DWORD [EBP+0x24]
0x339e33a ff7520           PUSH DWORD [EBP+0x20]

************************************************************************
Hook mode: Usermode
Hook type: Import Address Table (IAT)
Process: 1752 (explorer.exe)
Victim module: msvcrt.dll (0x77c10000 - 0x77c68000)
Function: kernel32.dll!CreateProcessA
Hook address: 0x339e2e0
Hooking module: <unknown>

Disassembly(0):
0x339e2e0 55               PUSH EBP
0x339e2e1 8bec             MOV EBP, ESP
0x339e2e3 8b451c           MOV EAX, [EBP+0x1c]
0x339e2e6 56               PUSH ESI
0x339e2e7 8b752c           MOV ESI, [EBP+0x2c]
0x339e2ea 57               PUSH EDI
0x339e2eb 56               PUSH ESI
0x339e2ec ff7528           PUSH DWORD [EBP+0x28]
0x339e2ef 83c804           OR EAX, 0x4
0x339e2f2 ff7524           PUSH DWORD [EBP+0x24]
0x339e2f5 ff7520           PUSH DWORD [EBP+0x20]

************************************************************************
Hook mode: Usermode
Hook type: Import Address Table (IAT)
Process: 1752 (explorer.exe)
Victim module: msvcrt.dll (0x77c10000 - 0x77c68000)
Function: kernel32.dll!CreateProcessW
Hook address: 0x339e325
Hooking module: <unknown>

Disassembly(0):
0x339e325 55               PUSH EBP
0x339e326 8bec             MOV EBP, ESP
0x339e328 8b451c           MOV EAX, [EBP+0x1c]
0x339e32b 56               PUSH ESI
0x339e32c 8b752c           MOV ESI, [EBP+0x2c]
0x339e32f 57               PUSH EDI
0x339e330 56               PUSH ESI
0x339e331 ff7528           PUSH DWORD [EBP+0x28]
0x339e334 83c804           OR EAX, 0x4
0x339e337 ff7524           PUSH DWORD [EBP+0x24]
0x339e33a ff7520           PUSH DWORD [EBP+0x20]

************************************************************************
Hook mode: Usermode
Hook type: Import Address Table (IAT)
Process: 1752 (explorer.exe)
Victim module: msvcrt.dll (0x77c10000 - 0x77c68000)
Function: kernel32.dll!HeapDestroy
Hook address: 0x339e231
Hooking module: <unknown>

Disassembly(0):
0x339e231 55               PUSH EBP
0x339e232 8bec             MOV EBP, ESP
0x339e234 51               PUSH ECX
0x339e235 e8ffa9feff       CALL 0x3388c39
0x339e23a ff7508           PUSH DWORD [EBP+0x8]
0x339e23d ff1548ff4003     CALL DWORD [0x340ff48]
0x339e243 59               POP ECX
0x339e244 5d               POP EBP
0x339e245 c20400           RET 0x4
0x339e248 55               PUSH EBP

************************************************************************
Hook mode: Usermode
Hook type: Import Address Table (IAT)
Process: 1752 (explorer.exe)
Victim module: ole32.dll (0x774e0000 - 0x7761e000)
Function: kernel32.dll!CreateProcessW
Hook address: 0x339e325
Hooking module: <unknown>

Disassembly(0):
0x339e325 55               PUSH EBP
0x339e326 8bec             MOV EBP, ESP
0x339e328 8b451c           MOV EAX, [EBP+0x1c]
0x339e32b 56               PUSH ESI
0x339e32c 8b752c           MOV ESI, [EBP+0x2c]
0x339e32f 57               PUSH EDI
0x339e330 56               PUSH ESI
0x339e331 ff7528           PUSH DWORD [EBP+0x28]
0x339e334 83c804           OR EAX, 0x4
0x339e337 ff7524           PUSH DWORD [EBP+0x24]
0x339e33a ff7520           PUSH DWORD [EBP+0x20]

************************************************************************
Hook mode: Usermode
Hook type: Import Address Table (IAT)
Process: 1752 (explorer.exe)
Victim module: ole32.dll (0x774e0000 - 0x7761e000)
Function: user32.dll!GetMessageW
Hook address: 0x33adbd7
Hooking module: <unknown>

Disassembly(0):
0x33adbd7 55               PUSH EBP
0x33adbd8 8bec             MOV EBP, ESP
0x33adbda 833d5c00410300   CMP DWORD [0x341005c], 0x0
0x33adbe1 56               PUSH ESI
0x33adbe2 8b7508           MOV ESI, [EBP+0x8]
0x33adbe5 57               PUSH EDI
0x33adbe6 7412             JZ 0x33adbfa
0x33adbe8 8b4604           MOV EAX, [ESI+0x4]
0x33adbeb 83f812           CMP EAX, 0x12
0x33adbee 74               DB 0x74

************************************************************************
Hook mode: Usermode
Hook type: Import Address Table (IAT)
Process: 1752 (explorer.exe)
Victim module: SHLWAPI.dll (0x77f60000 - 0x77fd6000)
Function: kernel32.dll!CreateProcessA
Hook address: 0x339e2e0
Hooking module: <unknown>

Disassembly(0):
0x339e2e0 55               PUSH EBP
0x339e2e1 8bec             MOV EBP, ESP
0x339e2e3 8b451c           MOV EAX, [EBP+0x1c]
0x339e2e6 56               PUSH ESI
0x339e2e7 8b752c           MOV ESI, [EBP+0x2c]
0x339e2ea 57               PUSH EDI
0x339e2eb 56               PUSH ESI
0x339e2ec ff7528           PUSH DWORD [EBP+0x28]
0x339e2ef 83c804           OR EAX, 0x4
0x339e2f2 ff7524           PUSH DWORD [EBP+0x24]
0x339e2f5 ff7520           PUSH DWORD [EBP+0x20]

************************************************************************
Hook mode: Usermode
Hook type: Import Address Table (IAT)
Process: 1752 (explorer.exe)
Victim module: SHLWAPI.dll (0x77f60000 - 0x77fd6000)
Function: kernel32.dll!CreateProcessW
Hook address: 0x339e325
Hooking module: <unknown>

Disassembly(0):
0x339e325 55               PUSH EBP
0x339e326 8bec             MOV EBP, ESP
0x339e328 8b451c           MOV EAX, [EBP+0x1c]
0x339e32b 56               PUSH ESI
0x339e32c 8b752c           MOV ESI, [EBP+0x2c]
0x339e32f 57               PUSH EDI
0x339e330 56               PUSH ESI
0x339e331 ff7528           PUSH DWORD [EBP+0x28]
0x339e334 83c804           OR EAX, 0x4
0x339e337 ff7524           PUSH DWORD [EBP+0x24]
0x339e33a ff7520           PUSH DWORD [EBP+0x20]

************************************************************************
Hook mode: Usermode
Hook type: Import Address Table (IAT)
Process: 1752 (explorer.exe)
Victim module: SHLWAPI.dll (0x77f60000 - 0x77fd6000)
Function: kernel32.dll!HeapDestroy
Hook address: 0x339e231
Hooking module: <unknown>

Disassembly(0):
0x339e231 55               PUSH EBP
0x339e232 8bec             MOV EBP, ESP
0x339e234 51               PUSH ECX
0x339e235 e8ffa9feff       CALL 0x3388c39
0x339e23a ff7508           PUSH DWORD [EBP+0x8]
0x339e23d ff1548ff4003     CALL DWORD [0x340ff48]
0x339e243 59               POP ECX
0x339e244 5d               POP EBP
0x339e245 c20400           RET 0x4
0x339e248 55               PUSH EBP

************************************************************************
Hook mode: Usermode
Hook type: Import Address Table (IAT)
Process: 1752 (explorer.exe)
Victim module: SHLWAPI.dll (0x77f60000 - 0x77fd6000)
Function: user32.dll!GetMessageW
Hook address: 0x33adbd7
Hooking module: <unknown>

Disassembly(0):
0x33adbd7 55               PUSH EBP
0x33adbd8 8bec             MOV EBP, ESP
0x33adbda 833d5c00410300   CMP DWORD [0x341005c], 0x0
0x33adbe1 56               PUSH ESI
0x33adbe2 8b7508           MOV ESI, [EBP+0x8]
0x33adbe5 57               PUSH EDI
0x33adbe6 7412             JZ 0x33adbfa
0x33adbe8 8b4604           MOV EAX, [ESI+0x4]
0x33adbeb 83f812           CMP EAX, 0x12
0x33adbee 74               DB 0x74

************************************************************************
Hook mode: Usermode
Hook type: Inline/Trampoline
Process: 1752 (explorer.exe)
Victim module: SHLWAPI.dll (0x77f60000 - 0x77fd6000)
Function: SHLWAPI.dll!<unknown> at 0x77f80cc7
Hook address: 0x33adbd7
Hooking module: <unknown>

Disassembly(0):
0x77f80cc7 833d84d2fc7700   CMP DWORD [0x77fcd284], 0x0
0x77f80cce 0f84c7f30000     JZ 0x77f9009b
0x77f80cd4 ff252415f677     JMP DWORD [0x77f61524]
0x77f80cda 90               NOP
0x77f80cdb 90               NOP
0x77f80cdc 90               NOP
0x77f80cdd 90               NOP
0x77f80cde 90               NOP

Disassembly(1):
0x33adbd7 55               PUSH EBP
0x33adbd8 8bec             MOV EBP, ESP
0x33adbda 833d5c00410300   CMP DWORD [0x341005c], 0x0
0x33adbe1 56               PUSH ESI
0x33adbe2 8b7508           MOV ESI, [EBP+0x8]
0x33adbe5 57               PUSH EDI
0x33adbe6 7412             JZ 0x33adbfa
0x33adbe8 8b4604           MOV EAX, [ESI+0x4]
0x33adbeb 83f812           CMP EAX, 0x12
0x33adbee 74               DB 0x74

************************************************************************
Hook mode: Usermode
Hook type: Import Address Table (IAT)
Process: 1752 (explorer.exe)
Victim module: OLEAUT32.dll (0x77120000 - 0x771ab000)
Function: user32.dll!GetMessageW
Hook address: 0x33adbd7
Hooking module: <unknown>

Disassembly(0):
0x33adbd7 55               PUSH EBP
0x33adbd8 8bec             MOV EBP, ESP
0x33adbda 833d5c00410300   CMP DWORD [0x341005c], 0x0
0x33adbe1 56               PUSH ESI
0x33adbe2 8b7508           MOV ESI, [EBP+0x8]
0x33adbe5 57               PUSH EDI
0x33adbe6 7412             JZ 0x33adbfa
0x33adbe8 8b4604           MOV EAX, [ESI+0x4]
0x33adbeb 83f812           CMP EAX, 0x12
0x33adbee 74               DB 0x74

************************************************************************
Hook mode: Usermode
Hook type: Import Address Table (IAT)
Process: 1752 (explorer.exe)
Victim module: SHDOCVW.dll (0x7e290000 - 0x7e403000)
Function: kernel32.dll!HeapDestroy
Hook address: 0x339e231
Hooking module: <unknown>

Disassembly(0):
0x339e231 55               PUSH EBP
0x339e232 8bec             MOV EBP, ESP
0x339e234 51               PUSH ECX
0x339e235 e8ffa9feff       CALL 0x3388c39
0x339e23a ff7508           PUSH DWORD [EBP+0x8]
0x339e23d ff1548ff4003     CALL DWORD [0x340ff48]
0x339e243 59               POP ECX
0x339e244 5d               POP EBP
0x339e245 c20400           RET 0x4
0x339e248 55               PUSH EBP

************************************************************************
Hook mode: Usermode
Hook type: Import Address Table (IAT)
Process: 1752 (explorer.exe)
Victim module: iertutil.dll (0x3dfd0000 - 0x3e015000)
Function: user32.dll!GetMessageW
Hook address: 0x33adbd7
Hooking module: <unknown>

Disassembly(0):
0x33adbd7 55               PUSH EBP
0x33adbd8 8bec             MOV EBP, ESP
0x33adbda 833d5c00410300   CMP DWORD [0x341005c], 0x0
0x33adbe1 56               PUSH ESI
0x33adbe2 8b7508           MOV ESI, [EBP+0x8]
0x33adbe5 57               PUSH EDI
0x33adbe6 7412             JZ 0x33adbfa
0x33adbe8 8b4604           MOV EAX, [ESI+0x4]
0x33adbeb 83f812           CMP EAX, 0x12
0x33adbee 74               DB 0x74

************************************************************************
Hook mode: Usermode
Hook type: Import Address Table (IAT)
Process: 1752 (explorer.exe)
Victim module: IMAGEHLP.dll (0x76c90000 - 0x76cb8000)
Function: kernel32.dll!HeapDestroy
Hook address: 0x339e231
Hooking module: <unknown>

Disassembly(0):
0x339e231 55               PUSH EBP
0x339e232 8bec             MOV EBP, ESP
0x339e234 51               PUSH ECX
0x339e235 e8ffa9feff       CALL 0x3388c39
0x339e23a ff7508           PUSH DWORD [EBP+0x8]
0x339e23d ff1548ff4003     CALL DWORD [0x340ff48]
0x339e243 59               POP ECX
0x339e244 5d               POP EBP
0x339e245 c20400           RET 0x4
0x339e248 55               PUSH EBP

************************************************************************
Hook mode: Usermode
Hook type: Import Address Table (IAT)
Process: 1752 (explorer.exe)
Victim module: WLDAP32.dll (0x76f60000 - 0x76f8c000)
Function: kernel32.dll!HeapDestroy
Hook address: 0x339e231
Hooking module: <unknown>

Disassembly(0):
0x339e231 55               PUSH EBP
0x339e232 8bec             MOV EBP, ESP
0x339e234 51               PUSH ECX
0x339e235 e8ffa9feff       CALL 0x3388c39
0x339e23a ff7508           PUSH DWORD [EBP+0x8]
0x339e23d ff1548ff4003     CALL DWORD [0x340ff48]
0x339e243 59               POP ECX
0x339e244 5d               POP EBP
0x339e245 c20400           RET 0x4
0x339e248 55               PUSH EBP

************************************************************************
Hook mode: Usermode
Hook type: Import Address Table (IAT)
Process: 1752 (explorer.exe)
Victim module: SHELL32.dll (0x7c9c0000 - 0x7d1d7000)
Function: kernel32.dll!HeapDestroy
Hook address: 0x339e231
Hooking module: <unknown>

Disassembly(0):
0x339e231 55               PUSH EBP
0x339e232 8bec             MOV EBP, ESP
0x339e234 51               PUSH ECX
0x339e235 e8ffa9feff       CALL 0x3388c39
0x339e23a ff7508           PUSH DWORD [EBP+0x8]
0x339e23d ff1548ff4003     CALL DWORD [0x340ff48]
0x339e243 59               POP ECX
0x339e244 5d               POP EBP
0x339e245 c20400           RET 0x4
0x339e248 55               PUSH EBP

************************************************************************
Hook mode: Usermode
Hook type: Import Address Table (IAT)
Process: 1752 (explorer.exe)
Victim module: SHELL32.dll (0x7c9c0000 - 0x7d1d7000)
Function: kernel32.dll!CreateProcessW
Hook address: 0x339e325
Hooking module: <unknown>

Disassembly(0):
0x339e325 55               PUSH EBP
0x339e326 8bec             MOV EBP, ESP
0x339e328 8b451c           MOV EAX, [EBP+0x1c]
0x339e32b 56               PUSH ESI
0x339e32c 8b752c           MOV ESI, [EBP+0x2c]
0x339e32f 57               PUSH EDI
0x339e330 56               PUSH ESI
0x339e331 ff7528           PUSH DWORD [EBP+0x28]
0x339e334 83c804           OR EAX, 0x4
0x339e337 ff7524           PUSH DWORD [EBP+0x24]
0x339e33a ff7520           PUSH DWORD [EBP+0x20]

************************************************************************
Hook mode: Usermode
Hook type: Import Address Table (IAT)
Process: 1752 (explorer.exe)
Victim module: SHELL32.dll (0x7c9c0000 - 0x7d1d7000)
Function: ntdll.dll!NtEnumerateValueKey
Hook address: 0x339ec38
Hooking module: <unknown>

Disassembly(0):
0x339ec38 55               PUSH EBP
0x339ec39 8bec             MOV EBP, ESP
0x339ec3b 83ec18           SUB ESP, 0x18
0x339ec3e 837d0c00         CMP DWORD [EBP+0xc], 0x0
0x339ec42 7507             JNZ 0x339ec4b
0x339ec44 83254cff400300   AND DWORD [0x340ff4c], 0x0
0x339ec4b 53               PUSH EBX
0x339ec4c 8b5d14           MOV EBX, [EBP+0x14]
0x339ec4f 56               PUSH ESI

************************************************************************
Hook mode: Usermode
Hook type: Import Address Table (IAT)
Process: 1752 (explorer.exe)
Victim module: SHELL32.dll (0x7c9c0000 - 0x7d1d7000)
Function: user32.dll!GetMessageW
Hook address: 0x33adbd7
Hooking module: <unknown>

Disassembly(0):
0x33adbd7 55               PUSH EBP
0x33adbd8 8bec             MOV EBP, ESP
0x33adbda 833d5c00410300   CMP DWORD [0x341005c], 0x0
0x33adbe1 56               PUSH ESI
0x33adbe2 8b7508           MOV ESI, [EBP+0x8]
0x33adbe5 57               PUSH EDI
0x33adbe6 7412             JZ 0x33adbfa
0x33adbe8 8b4604           MOV EAX, [ESI+0x4]
0x33adbeb 83f812           CMP EAX, 0x12
0x33adbee 74               DB 0x74

************************************************************************
Hook mode: Usermode
Hook type: Import Address Table (IAT)
Process: 1752 (explorer.exe)
Victim module: SHELL32.dll (0x7c9c0000 - 0x7d1d7000)
Function: user32.dll!ExitWindowsEx
Hook address: 0x33adb80
Hooking module: <unknown>

Disassembly(0):
0x33adb80 55               PUSH EBP
0x33adb81 8bec             MOV EBP, ESP
0x33adb83 51               PUSH ECX
0x33adb84 56               PUSH ESI
0x33adb85 ff152c143e03     CALL DWORD [0x33e142c]
0x33adb8b 2b0518004103     SUB EAX, [0x3410018]
0x33adb91 3dc0d40100       CMP EAX, 0x1d4c0
0x33adb96 762d             JBE 0x33adbc5

************************************************************************
Hook mode: Usermode
Hook type: Import Address Table (IAT)
Process: 1752 (explorer.exe)
Victim module: UxTheme.dll (0x5ad70000 - 0x5ada8000)
Function: user32.dll!GetMessageW
Hook address: 0x33adbd7
Hooking module: <unknown>

Disassembly(0):
0x33adbd7 55               PUSH EBP
0x33adbd8 8bec             MOV EBP, ESP
0x33adbda 833d5c00410300   CMP DWORD [0x341005c], 0x0
0x33adbe1 56               PUSH ESI
0x33adbe2 8b7508           MOV ESI, [EBP+0x8]
0x33adbe5 57               PUSH EDI
0x33adbe6 7412             JZ 0x33adbfa
0x33adbe8 8b4604           MOV EAX, [ESI+0x4]
0x33adbeb 83f812           CMP EAX, 0x12
0x33adbee 74               DB 0x74

************************************************************************
Hook mode: Usermode
Hook type: Import Address Table (IAT)
Process: 1752 (explorer.exe)
Victim module: ShimEng.dll (0x5cb70000 - 0x5cb96000)
Function: kernel32.dll!CreateProcessW
Hook address: 0x339e325
Hooking module: <unknown>

Disassembly(0):
0x339e325 55               PUSH EBP
0x339e326 8bec             MOV EBP, ESP
0x339e328 8b451c           MOV EAX, [EBP+0x1c]
0x339e32b 56               PUSH ESI
0x339e32c 8b752c           MOV ESI, [EBP+0x2c]
0x339e32f 57               PUSH EDI
0x339e330 56               PUSH ESI
0x339e331 ff7528           PUSH DWORD [EBP+0x28]
0x339e334 83c804           OR EAX, 0x4
0x339e337 ff7524           PUSH DWORD [EBP+0x24]
0x339e33a ff7520           PUSH DWORD [EBP+0x20]

************************************************************************
Hook mode: Usermode
Hook type: Import Address Table (IAT)
Process: 1752 (explorer.exe)
Victim module: AcGenral.DLL (0x6f880000 - 0x6fa4a000)
Function: kernel32.dll!CreateProcessW
Hook address: 0x339e325
Hooking module: <unknown>

Disassembly(0):
0x339e325 55               PUSH EBP
0x339e326 8bec             MOV EBP, ESP
0x339e328 8b451c           MOV EAX, [EBP+0x1c]
0x339e32b 56               PUSH ESI
0x339e32c 8b752c           MOV ESI, [EBP+0x2c]
0x339e32f 57               PUSH EDI
0x339e330 56               PUSH ESI
0x339e331 ff7528           PUSH DWORD [EBP+0x28]
0x339e334 83c804           OR EAX, 0x4
0x339e337 ff7524           PUSH DWORD [EBP+0x24]
0x339e33a ff7520           PUSH DWORD [EBP+0x20]

************************************************************************
Hook mode: Usermode
Hook type: Import Address Table (IAT)
Process: 1752 (explorer.exe)
Victim module: AcGenral.DLL (0x6f880000 - 0x6fa4a000)
Function: kernel32.dll!CreateProcessA
Hook address: 0x339e2e0
Hooking module: <unknown>

Disassembly(0):
0x339e2e0 55               PUSH EBP
0x339e2e1 8bec             MOV EBP, ESP
0x339e2e3 8b451c           MOV EAX, [EBP+0x1c]
0x339e2e6 56               PUSH ESI
0x339e2e7 8b752c           MOV ESI, [EBP+0x2c]
0x339e2ea 57               PUSH EDI
0x339e2eb 56               PUSH ESI
0x339e2ec ff7528           PUSH DWORD [EBP+0x28]
0x339e2ef 83c804           OR EAX, 0x4
0x339e2f2 ff7524           PUSH DWORD [EBP+0x24]
0x339e2f5 ff7520           PUSH DWORD [EBP+0x20]

************************************************************************
Hook mode: Usermode
Hook type: Import Address Table (IAT)
Process: 1752 (explorer.exe)
Victim module: AcGenral.DLL (0x6f880000 - 0x6fa4a000)
Function: kernel32.dll!HeapDestroy
Hook address: 0x339e231
Hooking module: <unknown>

Disassembly(0):
0x339e231 55               PUSH EBP
0x339e232 8bec             MOV EBP, ESP
0x339e234 51               PUSH ECX
0x339e235 e8ffa9feff       CALL 0x3388c39
0x339e23a ff7508           PUSH DWORD [EBP+0x8]
0x339e23d ff1548ff4003     CALL DWORD [0x340ff48]
0x339e243 59               POP ECX
0x339e244 5d               POP EBP
0x339e245 c20400           RET 0x4
0x339e248 55               PUSH EBP

************************************************************************
Hook mode: Usermode
Hook type: Import Address Table (IAT)
Process: 1752 (explorer.exe)
Victim module: AcGenral.DLL (0x6f880000 - 0x6fa4a000)
Function: user32.dll!GetMessageW
Hook address: 0x33adbd7
Hooking module: <unknown>

Disassembly(0):
0x33adbd7 55               PUSH EBP
0x33adbd8 8bec             MOV EBP, ESP
0x33adbda 833d5c00410300   CMP DWORD [0x341005c], 0x0
0x33adbe1 56               PUSH ESI
0x33adbe2 8b7508           MOV ESI, [EBP+0x8]
0x33adbe5 57               PUSH EDI
0x33adbe6 7412             JZ 0x33adbfa
0x33adbe8 8b4604           MOV EAX, [ESI+0x4]
0x33adbeb 83f812           CMP EAX, 0x12
0x33adbee 74               DB 0x74

************************************************************************
Hook mode: Usermode
Hook type: Import Address Table (IAT)
Process: 1752 (explorer.exe)
Victim module: USERENV.dll (0x769c0000 - 0x76a74000)
Function: kernel32.dll!CreateProcessW
Hook address: 0x339e325
Hooking module: <unknown>

Disassembly(0):
0x339e325 55               PUSH EBP
0x339e326 8bec             MOV EBP, ESP
0x339e328 8b451c           MOV EAX, [EBP+0x1c]
0x339e32b 56               PUSH ESI
0x339e32c 8b752c           MOV ESI, [EBP+0x2c]
0x339e32f 57               PUSH EDI
0x339e330 56               PUSH ESI
0x339e331 ff7528           PUSH DWORD [EBP+0x28]
0x339e334 83c804           OR EAX, 0x4
0x339e337 ff7524           PUSH DWORD [EBP+0x24]
0x339e33a ff7520           PUSH DWORD [EBP+0x20]

************************************************************************
Hook mode: Usermode
Hook type: Import Address Table (IAT)
Process: 1752 (explorer.exe)
Victim module: comctl32.dll (0x5d090000 - 0x5d12a000)
Function: kernel32.dll!HeapDestroy
Hook address: 0x339e231
Hooking module: <unknown>

Disassembly(0):
0x339e231 55               PUSH EBP
0x339e232 8bec             MOV EBP, ESP
0x339e234 51               PUSH ECX
0x339e235 e8ffa9feff       CALL 0x3388c39
0x339e23a ff7508           PUSH DWORD [EBP+0x8]
0x339e23d ff1548ff4003     CALL DWORD [0x340ff48]
0x339e243 59               POP ECX
0x339e244 5d               POP EBP
0x339e245 c20400           RET 0x4
0x339e248 55               PUSH EBP

************************************************************************
Hook mode: Usermode
Hook type: Import Address Table (IAT)
Process: 1752 (explorer.exe)
Victim module: comctl32.dll (0x5d090000 - 0x5d12a000)
Function: user32.dll!GetMessageW
Hook address: 0x33adbd7
Hooking module: <unknown>

Disassembly(0):
0x33adbd7 55               PUSH EBP
0x33adbd8 8bec             MOV EBP, ESP
0x33adbda 833d5c00410300   CMP DWORD [0x341005c], 0x0
0x33adbe1 56               PUSH ESI
0x33adbe2 8b7508           MOV ESI, [EBP+0x8]
0x33adbe5 57               PUSH EDI
0x33adbe6 7412             JZ 0x33adbfa
0x33adbe8 8b4604           MOV EAX, [ESI+0x4]
0x33adbeb 83f812           CMP EAX, 0x12
0x33adbee 74               DB 0x74

************************************************************************
Hook mode: Usermode
Hook type: Import Address Table (IAT)
Process: 1752 (explorer.exe)
Victim module: appHelp.dll (0x77b40000 - 0x77b62000)
Function: ntdll.dll!NtQueryDirectoryFile
Hook address: 0x339e6b0
Hooking module: <unknown>

Disassembly(0):
0x339e6b0 b889ce3d03       MOV EAX, 0x33dce89
0x339e6b5 e8426b0300       CALL 0x33d51fc
0x339e6ba 51               PUSH ECX
0x339e6bb b868110000       MOV EAX, 0x1168
0x339e6c0 e81bdf0200       CALL 0x33cc5e0
0x339e6c5 53               PUSH EBX
0x339e6c6 56               PUSH ESI
0x339e6c7 57               PUSH EDI

************************************************************************
Hook mode: Usermode
Hook type: Import Address Table (IAT)
Process: 1752 (explorer.exe)
Victim module: appHelp.dll (0x77b40000 - 0x77b62000)
Function: ntdll.dll!NtEnumerateValueKey
Hook address: 0x339ec38
Hooking module: <unknown>

Disassembly(0):
0x339ec38 55               PUSH EBP
0x339ec39 8bec             MOV EBP, ESP
0x339ec3b 83ec18           SUB ESP, 0x18
0x339ec3e 837d0c00         CMP DWORD [EBP+0xc], 0x0
0x339ec42 7507             JNZ 0x339ec4b
0x339ec44 83254cff400300   AND DWORD [0x340ff4c], 0x0
0x339ec4b 53               PUSH EBX
0x339ec4c 8b5d14           MOV EBX, [EBP+0x14]
0x339ec4f 56               PUSH ESI

************************************************************************
Hook mode: Usermode
Hook type: Import Address Table (IAT)
Process: 1752 (explorer.exe)
Victim module: appHelp.dll (0x77b40000 - 0x77b62000)
Function: kernel32.dll!CreateProcessW
Hook address: 0x339e325
Hooking module: <unknown>

Disassembly(0):
0x339e325 55               PUSH EBP
0x339e326 8bec             MOV EBP, ESP
0x339e328 8b451c           MOV EAX, [EBP+0x1c]
0x339e32b 56               PUSH ESI
0x339e32c 8b752c           MOV ESI, [EBP+0x2c]
0x339e32f 57               PUSH EDI
0x339e330 56               PUSH ESI
0x339e331 ff7528           PUSH DWORD [EBP+0x28]
0x339e334 83c804           OR EAX, 0x4
0x339e337 ff7524           PUSH DWORD [EBP+0x24]
0x339e33a ff7520           PUSH DWORD [EBP+0x20]

************************************************************************
Hook mode: Usermode
Hook type: Import Address Table (IAT)
Process: 1752 (explorer.exe)
Victim module: CLBCATQ.DLL (0x76fd0000 - 0x7704f000)
Function: kernel32.dll!CreateProcessW
Hook address: 0x339e325
Hooking module: <unknown>

Disassembly(0):
0x339e325 55               PUSH EBP
0x339e326 8bec             MOV EBP, ESP
0x339e328 8b451c           MOV EAX, [EBP+0x1c]
0x339e32b 56               PUSH ESI
0x339e32c 8b752c           MOV ESI, [EBP+0x2c]
0x339e32f 57               PUSH EDI
0x339e330 56               PUSH ESI
0x339e331 ff7528           PUSH DWORD [EBP+0x28]
0x339e334 83c804           OR EAX, 0x4
0x339e337 ff7524           PUSH DWORD [EBP+0x24]
0x339e33a ff7520           PUSH DWORD [EBP+0x20]

************************************************************************
Hook mode: Usermode
Hook type: Import Address Table (IAT)
Process: 1752 (explorer.exe)
Victim module: dbghelp.dll (0x59a60000 - 0x59b01000)
Function: kernel32.dll!HeapDestroy
Hook address: 0x339e231
Hooking module: <unknown>

Disassembly(0):
0x339e231 55               PUSH EBP
0x339e232 8bec             MOV EBP, ESP
0x339e234 51               PUSH ECX
0x339e235 e8ffa9feff       CALL 0x3388c39
0x339e23a ff7508           PUSH DWORD [EBP+0x8]
0x339e23d ff1548ff4003     CALL DWORD [0x340ff48]
0x339e243 59               POP ECX
0x339e244 5d               POP EBP
0x339e245 c20400           RET 0x4
0x339e248 55               PUSH EBP

************************************************************************
Hook mode: Usermode
Hook type: Import Address Table (IAT)
Process: 1752 (explorer.exe)
Victim module: MSVCR71.dll (0x7c340000 - 0x7c396000)
Function: kernel32.dll!HeapDestroy
Hook address: 0x339e231
Hooking module: <unknown>

Disassembly(0):
0x339e231 55               PUSH EBP
0x339e232 8bec             MOV EBP, ESP
0x339e234 51               PUSH ECX
0x339e235 e8ffa9feff       CALL 0x3388c39
0x339e23a ff7508           PUSH DWORD [EBP+0x8]
0x339e23d ff1548ff4003     CALL DWORD [0x340ff48]
0x339e243 59               POP ECX
0x339e244 5d               POP EBP
0x339e245 c20400           RET 0x4
0x339e248 55               PUSH EBP

************************************************************************
Hook mode: Usermode
Hook type: Import Address Table (IAT)
Process: 1752 (explorer.exe)
Victim module: MSVCR71.dll (0x7c340000 - 0x7c396000)
Function: kernel32.dll!CreateProcessA
Hook address: 0x339e2e0
Hooking module: <unknown>

Disassembly(0):
0x339e2e0 55               PUSH EBP
0x339e2e1 8bec             MOV EBP, ESP
0x339e2e3 8b451c           MOV EAX, [EBP+0x1c]
0x339e2e6 56               PUSH ESI
0x339e2e7 8b752c           MOV ESI, [EBP+0x2c]
0x339e2ea 57               PUSH EDI
0x339e2eb 56               PUSH ESI
0x339e2ec ff7528           PUSH DWORD [EBP+0x28]
0x339e2ef 83c804           OR EAX, 0x4
0x339e2f2 ff7524           PUSH DWORD [EBP+0x24]
0x339e2f5 ff7520           PUSH DWORD [EBP+0x20]

************************************************************************
Hook mode: Usermode
Hook type: Import Address Table (IAT)
Process: 1752 (explorer.exe)
Victim module: MSVCR71.dll (0x7c340000 - 0x7c396000)
Function: kernel32.dll!CreateProcessW
Hook address: 0x339e325
Hooking module: <unknown>

Disassembly(0):
0x339e325 55               PUSH EBP
0x339e326 8bec             MOV EBP, ESP
0x339e328 8b451c           MOV EAX, [EBP+0x1c]
0x339e32b 56               PUSH ESI
0x339e32c 8b752c           MOV ESI, [EBP+0x2c]
0x339e32f 57               PUSH EDI
0x339e330 56               PUSH ESI
0x339e331 ff7528           PUSH DWORD [EBP+0x28]
0x339e334 83c804           OR EAX, 0x4
0x339e337 ff7524           PUSH DWORD [EBP+0x24]
0x339e33a ff7520           PUSH DWORD [EBP+0x20]

************************************************************************
Hook mode: Usermode
Hook type: Import Address Table (IAT)
Process: 1752 (explorer.exe)
Victim module: cscui.dll (0x77a20000 - 0x77a74000)
Function: kernel32.dll!CreateProcessW
Hook address: 0x339e325
Hooking module: <unknown>

Disassembly(0):
0x339e325 55               PUSH EBP
0x339e326 8bec             MOV EBP, ESP
0x339e328 8b451c           MOV EAX, [EBP+0x1c]
0x339e32b 56               PUSH ESI
0x339e32c 8b752c           MOV ESI, [EBP+0x2c]
0x339e32f 57               PUSH EDI
0x339e330 56               PUSH ESI
0x339e331 ff7528           PUSH DWORD [EBP+0x28]
0x339e334 83c804           OR EAX, 0x4
0x339e337 ff7524           PUSH DWORD [EBP+0x24]
0x339e33a ff7520           PUSH DWORD [EBP+0x20]

************************************************************************
Hook mode: Usermode
Hook type: Import Address Table (IAT)
Process: 1752 (explorer.exe)
Victim module: cscui.dll (0x77a20000 - 0x77a74000)
Function: user32.dll!ExitWindowsEx
Hook address: 0x33adb80
Hooking module: <unknown>

Disassembly(0):
0x33adb80 55               PUSH EBP
0x33adb81 8bec             MOV EBP, ESP
0x33adb83 51               PUSH ECX
0x33adb84 56               PUSH ESI
0x33adb85 ff152c143e03     CALL DWORD [0x33e142c]
0x33adb8b 2b0518004103     SUB EAX, [0x3410018]
0x33adb91 3dc0d40100       CMP EAX, 0x1d4c0
0x33adb96 762d             JBE 0x33adbc5

************************************************************************
Hook mode: Usermode
Hook type: Import Address Table (IAT)
Process: 1752 (explorer.exe)
Victim module: CSCDLL.dll (0x76600000 - 0x7661d000)
Function: ntdll.dll!NtQueryDirectoryFile
Hook address: 0x339e6b0
Hooking module: <unknown>

Disassembly(0):
0x339e6b0 b889ce3d03       MOV EAX, 0x33dce89
0x339e6b5 e8426b0300       CALL 0x33d51fc
0x339e6ba 51               PUSH ECX
0x339e6bb b868110000       MOV EAX, 0x1168
0x339e6c0 e81bdf0200       CALL 0x33cc5e0
0x339e6c5 53               PUSH EBX
0x339e6c6 56               PUSH ESI
0x339e6c7 57               PUSH EDI

************************************************************************
Hook mode: Usermode
Hook type: Import Address Table (IAT)
Process: 1752 (explorer.exe)
Victim module: themeui.dll (0x5ba60000 - 0x5bad1000)
Function: kernel32.dll!CreateProcessW
Hook address: 0x339e325
Hooking module: <unknown>

Disassembly(0):
0x339e325 55               PUSH EBP
0x339e326 8bec             MOV EBP, ESP
0x339e328 8b451c           MOV EAX, [EBP+0x1c]
0x339e32b 56               PUSH ESI
0x339e32c 8b752c           MOV ESI, [EBP+0x2c]
0x339e32f 57               PUSH EDI
0x339e330 56               PUSH ESI
0x339e331 ff7528           PUSH DWORD [EBP+0x28]
0x339e334 83c804           OR EAX, 0x4
0x339e337 ff7524           PUSH DWORD [EBP+0x24]
0x339e33a ff7520           PUSH DWORD [EBP+0x20]

************************************************************************
Hook mode: Usermode
Hook type: Import Address Table (IAT)
Process: 1752 (explorer.exe)
Victim module: themeui.dll (0x5ba60000 - 0x5bad1000)
Function: user32.dll!GetMessageW
Hook address: 0x33adbd7
Hooking module: <unknown>

Disassembly(0):
0x33adbd7 55               PUSH EBP
0x33adbd8 8bec             MOV EBP, ESP
0x33adbda 833d5c00410300   CMP DWORD [0x341005c], 0x0
0x33adbe1 56               PUSH ESI
0x33adbe2 8b7508           MOV ESI, [EBP+0x8]
0x33adbe5 57               PUSH EDI
0x33adbe6 7412             JZ 0x33adbfa
0x33adbe8 8b4604           MOV EAX, [ESI+0x4]
0x33adbeb 83f812           CMP EAX, 0x12
0x33adbee 74               DB 0x74

************************************************************************
Hook mode: Usermode
Hook type: Import Address Table (IAT)
Process: 1752 (explorer.exe)
Victim module: MSCTF.dll (0x74720000 - 0x7476c000)
Function: kernel32.dll!HeapDestroy
Hook address: 0x339e231
Hooking module: <unknown>

Disassembly(0):
0x339e231 55               PUSH EBP
0x339e232 8bec             MOV EBP, ESP
0x339e234 51               PUSH ECX
0x339e235 e8ffa9feff       CALL 0x3388c39
0x339e23a ff7508           PUSH DWORD [EBP+0x8]
0x339e23d ff1548ff4003     CALL DWORD [0x340ff48]
0x339e243 59               POP ECX
0x339e244 5d               POP EBP
0x339e245 c20400           RET 0x4
0x339e248 55               PUSH EBP

************************************************************************
Hook mode: Usermode
Hook type: Import Address Table (IAT)
Process: 1752 (explorer.exe)
Victim module: MSCTF.dll (0x74720000 - 0x7476c000)
Function: kernel32.dll!CreateProcessA
Hook address: 0x339e2e0
Hooking module: <unknown>

Disassembly(0):
0x339e2e0 55               PUSH EBP
0x339e2e1 8bec             MOV EBP, ESP
0x339e2e3 8b451c           MOV EAX, [EBP+0x1c]
0x339e2e6 56               PUSH ESI
0x339e2e7 8b752c           MOV ESI, [EBP+0x2c]
0x339e2ea 57               PUSH EDI
0x339e2eb 56               PUSH ESI
0x339e2ec ff7528           PUSH DWORD [EBP+0x28]
0x339e2ef 83c804           OR EAX, 0x4
0x339e2f2 ff7524           PUSH DWORD [EBP+0x24]
0x339e2f5 ff7520           PUSH DWORD [EBP+0x20]

************************************************************************
Hook mode: Usermode
Hook type: Import Address Table (IAT)
Process: 1752 (explorer.exe)
Victim module: MSCTF.dll (0x74720000 - 0x7476c000)
Function: user32.dll!GetMessageW
Hook address: 0x33adbd7
Hooking module: <unknown>

Disassembly(0):
0x33adbd7 55               PUSH EBP
0x33adbd8 8bec             MOV EBP, ESP
0x33adbda 833d5c00410300   CMP DWORD [0x341005c], 0x0
0x33adbe1 56               PUSH ESI
0x33adbe2 8b7508           MOV ESI, [EBP+0x8]
0x33adbe5 57               PUSH EDI
0x33adbe6 7412             JZ 0x33adbfa
0x33adbe8 8b4604           MOV EAX, [ESI+0x4]
0x33adbeb 83f812           CMP EAX, 0x12
0x33adbee 74               DB 0x74

************************************************************************
Hook mode: Usermode
Hook type: Import Address Table (IAT)
Process: 1752 (explorer.exe)
Victim module: urlmon.dll (0x78130000 - 0x78258000)
Function: kernel32.dll!CreateProcessA
Hook address: 0x339e2e0
Hooking module: <unknown>

Disassembly(0):
0x339e2e0 55               PUSH EBP
0x339e2e1 8bec             MOV EBP, ESP
0x339e2e3 8b451c           MOV EAX, [EBP+0x1c]
0x339e2e6 56               PUSH ESI
0x339e2e7 8b752c           MOV ESI, [EBP+0x2c]
0x339e2ea 57               PUSH EDI
0x339e2eb 56               PUSH ESI
0x339e2ec ff7528           PUSH DWORD [EBP+0x28]
0x339e2ef 83c804           OR EAX, 0x4
0x339e2f2 ff7524           PUSH DWORD [EBP+0x24]
0x339e2f5 ff7520           PUSH DWORD [EBP+0x20]

************************************************************************
Hook mode: Usermode
Hook type: Import Address Table (IAT)
Process: 1752 (explorer.exe)
Victim module: urlmon.dll (0x78130000 - 0x78258000)
Function: kernel32.dll!CreateProcessW
Hook address: 0x339e325
Hooking module: <unknown>

Disassembly(0):
0x339e325 55               PUSH EBP
0x339e326 8bec             MOV EBP, ESP
0x339e328 8b451c           MOV EAX, [EBP+0x1c]
0x339e32b 56               PUSH ESI
0x339e32c 8b752c           MOV ESI, [EBP+0x2c]
0x339e32f 57               PUSH EDI
0x339e330 56               PUSH ESI
0x339e331 ff7528           PUSH DWORD [EBP+0x28]
0x339e334 83c804           OR EAX, 0x4
0x339e337 ff7524           PUSH DWORD [EBP+0x24]
0x339e33a ff7520           PUSH DWORD [EBP+0x20]

************************************************************************
Hook mode: Usermode
Hook type: Import Address Table (IAT)
Process: 1752 (explorer.exe)
Victim module: ieframe.dll (0x3e1c0000 - 0x3e78f000)
Function: kernel32.dll!HeapDestroy
Hook address: 0x339e231
Hooking module: <unknown>

Disassembly(0):
0x339e231 55               PUSH EBP
0x339e232 8bec             MOV EBP, ESP
0x339e234 51               PUSH ECX
0x339e235 e8ffa9feff       CALL 0x3388c39
0x339e23a ff7508           PUSH DWORD [EBP+0x8]
0x339e23d ff1548ff4003     CALL DWORD [0x340ff48]
0x339e243 59               POP ECX
0x339e244 5d               POP EBP
0x339e245 c20400           RET 0x4
0x339e248 55               PUSH EBP

************************************************************************
Hook mode: Usermode
Hook type: Import Address Table (IAT)
Process: 1752 (explorer.exe)
Victim module: ieframe.dll (0x3e1c0000 - 0x3e78f000)
Function: kernel32.dll!CreateProcessW
Hook address: 0x339e325
Hooking module: <unknown>

Disassembly(0):
0x339e325 55               PUSH EBP
0x339e326 8bec             MOV EBP, ESP
0x339e328 8b451c           MOV EAX, [EBP+0x1c]
0x339e32b 56               PUSH ESI
0x339e32c 8b752c           MOV ESI, [EBP+0x2c]
0x339e32f 57               PUSH EDI
0x339e330 56               PUSH ESI
0x339e331 ff7528           PUSH DWORD [EBP+0x28]
0x339e334 83c804           OR EAX, 0x4
0x339e337 ff7524           PUSH DWORD [EBP+0x24]
0x339e33a ff7520           PUSH DWORD [EBP+0x20]

************************************************************************
Hook mode: Usermode
Hook type: Import Address Table (IAT)
Process: 1752 (explorer.exe)
Victim module: ieframe.dll (0x3e1c0000 - 0x3e78f000)
Function: user32.dll!GetMessageW
Hook address: 0x33adbd7
Hooking module: <unknown>

Disassembly(0):
0x33adbd7 55               PUSH EBP
0x33adbd8 8bec             MOV EBP, ESP
0x33adbda 833d5c00410300   CMP DWORD [0x341005c], 0x0
0x33adbe1 56               PUSH ESI
0x33adbe2 8b7508           MOV ESI, [EBP+0x8]
0x33adbe5 57               PUSH EDI
0x33adbe6 7412             JZ 0x33adbfa
0x33adbe8 8b4604           MOV EAX, [ESI+0x4]
0x33adbeb 83f812           CMP EAX, 0x12
0x33adbee 74               DB 0x74

************************************************************************
Hook mode: Usermode
Hook type: Import Address Table (IAT)
Process: 1752 (explorer.exe)
Victim module: LINKINFO.dll (0x76980000 - 0x76988000)
Function: kernel32.dll!HeapDestroy
Hook address: 0x339e231
Hooking module: <unknown>

Disassembly(0):
0x339e231 55               PUSH EBP
0x339e232 8bec             MOV EBP, ESP
0x339e234 51               PUSH ECX
0x339e235 e8ffa9feff       CALL 0x3388c39
0x339e23a ff7508           PUSH DWORD [EBP+0x8]
0x339e23d ff1548ff4003     CALL DWORD [0x340ff48]
0x339e243 59               POP ECX
0x339e244 5d               POP EBP
0x339e245 c20400           RET 0x4
0x339e248 55               PUSH EBP

************************************************************************
Hook mode: Usermode
Hook type: Import Address Table (IAT)
Process: 1752 (explorer.exe)
Victim module: ATL.DLL (0x76b20000 - 0x76b31000)
Function: kernel32.dll!HeapDestroy
Hook address: 0x339e231
Hooking module: <unknown>

Disassembly(0):
0x339e231 55               PUSH EBP
0x339e232 8bec             MOV EBP, ESP
0x339e234 51               PUSH ECX
0x339e235 e8ffa9feff       CALL 0x3388c39
0x339e23a ff7508           PUSH DWORD [EBP+0x8]
0x339e23d ff1548ff4003     CALL DWORD [0x340ff48]
0x339e243 59               POP ECX
0x339e244 5d               POP EBP
0x339e245 c20400           RET 0x4
0x339e248 55               PUSH EBP

************************************************************************
Hook mode: Usermode
Hook type: Import Address Table (IAT)
Process: 1752 (explorer.exe)
Victim module: MLANG.dll (0x75cf0000 - 0x75d81000)
Function: kernel32.dll!HeapDestroy
Hook address: 0x339e231
Hooking module: <unknown>

Disassembly(0):
0x339e231 55               PUSH EBP
0x339e232 8bec             MOV EBP, ESP
0x339e234 51               PUSH ECX
0x339e235 e8ffa9feff       CALL 0x3388c39
0x339e23a ff7508           PUSH DWORD [EBP+0x8]
0x339e23d ff1548ff4003     CALL DWORD [0x340ff48]
0x339e243 59               POP ECX
0x339e244 5d               POP EBP
0x339e245 c20400           RET 0x4
0x339e248 55               PUSH EBP

************************************************************************
Hook mode: Usermode
Hook type: Import Address Table (IAT)
Process: 1752 (explorer.exe)
Victim module: stobject.dll (0x76280000 - 0x762a1000)
Function: user32.dll!GetMessageW
Hook address: 0x33adbd7
Hooking module: <unknown>

Disassembly(0):
0x33adbd7 55               PUSH EBP
0x33adbd8 8bec             MOV EBP, ESP
0x33adbda 833d5c00410300   CMP DWORD [0x341005c], 0x0
0x33adbe1 56               PUSH ESI
0x33adbe2 8b7508           MOV ESI, [EBP+0x8]
0x33adbe5 57               PUSH EDI
0x33adbe6 7412             JZ 0x33adbfa
0x33adbe8 8b4604           MOV EAX, [ESI+0x4]
0x33adbeb 83f812           CMP EAX, 0x12
0x33adbee 74               DB 0x74

************************************************************************
Hook mode: Usermode
Hook type: Import Address Table (IAT)
Process: 1752 (explorer.exe)
Victim module: SETUPAPI.dll (0x77920000 - 0x77a13000)
Function: kernel32.dll!CreateProcessW
Hook address: 0x339e325
Hooking module: <unknown>

Disassembly(0):
0x339e325 55               PUSH EBP
0x339e326 8bec             MOV EBP, ESP
0x339e328 8b451c           MOV EAX, [EBP+0x1c]
0x339e32b 56               PUSH ESI
0x339e32c 8b752c           MOV ESI, [EBP+0x2c]
0x339e32f 57               PUSH EDI
0x339e330 56               PUSH ESI
0x339e331 ff7528           PUSH DWORD [EBP+0x28]
0x339e334 83c804           OR EAX, 0x4
0x339e337 ff7524           PUSH DWORD [EBP+0x24]
0x339e33a ff7520           PUSH DWORD [EBP+0x20]

************************************************************************
Hook mode: Usermode
Hook type: Import Address Table (IAT)
Process: 1752 (explorer.exe)
Victim module: SETUPAPI.dll (0x77920000 - 0x77a13000)
Function: user32.dll!ExitWindowsEx
Hook address: 0x33adb80
Hooking module: <unknown>

Disassembly(0):
0x33adb80 55               PUSH EBP
0x33adb81 8bec             MOV EBP, ESP
0x33adb83 51               PUSH ECX
0x33adb84 56               PUSH ESI
0x33adb85 ff152c143e03     CALL DWORD [0x33e142c]
0x33adb8b 2b0518004103     SUB EAX, [0x3410018]
0x33adb91 3dc0d40100       CMP EAX, 0x1d4c0
0x33adb96 762d             JBE 0x33adbc5

************************************************************************
Hook mode: Usermode
Hook type: Import Address Table (IAT)
Process: 1752 (explorer.exe)
Victim module: NETSHELL.dll (0x76400000 - 0x765a5000)
Function: kernel32.dll!HeapDestroy
Hook address: 0x339e231
Hooking module: <unknown>

Disassembly(0):
0x339e231 55               PUSH EBP
0x339e232 8bec             MOV EBP, ESP
0x339e234 51               PUSH ECX
0x339e235 e8ffa9feff       CALL 0x3388c39
0x339e23a ff7508           PUSH DWORD [EBP+0x8]
0x339e23d ff1548ff4003     CALL DWORD [0x340ff48]
0x339e243 59               POP ECX
0x339e244 5d               POP EBP
0x339e245 c20400           RET 0x4
0x339e248 55               PUSH EBP

************************************************************************
Hook mode: Usermode
Hook type: Import Address Table (IAT)
Process: 1752 (explorer.exe)
Victim module: NETSHELL.dll (0x76400000 - 0x765a5000)
Function: user32.dll!GetMessageW
Hook address: 0x33adbd7
Hooking module: <unknown>

Disassembly(0):
0x33adbd7 55               PUSH EBP
0x33adbd8 8bec             MOV EBP, ESP
0x33adbda 833d5c00410300   CMP DWORD [0x341005c], 0x0
0x33adbe1 56               PUSH ESI
0x33adbe2 8b7508           MOV ESI, [EBP+0x8]
0x33adbe5 57               PUSH EDI
0x33adbe6 7412             JZ 0x33adbfa
0x33adbe8 8b4604           MOV EAX, [ESI+0x4]
0x33adbeb 83f812           CMP EAX, 0x12
0x33adbee 74               DB 0x74

************************************************************************
Hook mode: Usermode
Hook type: Import Address Table (IAT)
Process: 1752 (explorer.exe)
Victim module: NETSHELL.dll (0x76400000 - 0x765a5000)
Function: user32.dll!ExitWindowsEx
Hook address: 0x33adb80
Hooking module: <unknown>

Disassembly(0):
0x33adb80 55               PUSH EBP
0x33adb81 8bec             MOV EBP, ESP
0x33adb83 51               PUSH ECX
0x33adb84 56               PUSH ESI
0x33adb85 ff152c143e03     CALL DWORD [0x33e142c]
0x33adb8b 2b0518004103     SUB EAX, [0x3410018]
0x33adb91 3dc0d40100       CMP EAX, 0x1d4c0
0x33adb96 762d             JBE 0x33adbc5

************************************************************************
Hook mode: Usermode
Hook type: Import Address Table (IAT)
Process: 1752 (explorer.exe)
Victim module: credui.dll (0x76c00000 - 0x76c2e000)
Function: user32.dll!GetMessageW
Hook address: 0x33adbd7
Hooking module: <unknown>

Disassembly(0):
0x33adbd7 55               PUSH EBP
0x33adbd8 8bec             MOV EBP, ESP
0x33adbda 833d5c00410300   CMP DWORD [0x341005c], 0x0
0x33adbe1 56               PUSH ESI
0x33adbe2 8b7508           MOV ESI, [EBP+0x8]
0x33adbe5 57               PUSH EDI
0x33adbe6 7412             JZ 0x33adbfa
0x33adbe8 8b4604           MOV EAX, [ESI+0x4]
0x33adbeb 83f812           CMP EAX, 0x12
0x33adbee 74               DB 0x74

************************************************************************
Hook mode: Usermode
Hook type: Import Address Table (IAT)
Process: 1752 (explorer.exe)
Victim module: rtutils.dll (0x76e80000 - 0x76e8e000)
Function: kernel32.dll!HeapDestroy
Hook address: 0x339e231
Hooking module: <unknown>

Disassembly(0):
0x339e231 55               PUSH EBP
0x339e232 8bec             MOV EBP, ESP
0x339e234 51               PUSH ECX
0x339e235 e8ffa9feff       CALL 0x3388c39
0x339e23a ff7508           PUSH DWORD [EBP+0x8]
0x339e23d ff1548ff4003     CALL DWORD [0x340ff48]
0x339e243 59               POP ECX
0x339e244 5d               POP EBP
0x339e245 c20400           RET 0x4
0x339e248 55               PUSH EBP

************************************************************************
Hook mode: Usermode
Hook type: Import Address Table (IAT)
Process: 1752 (explorer.exe)
Victim module: eappcfg.dll (0x745b0000 - 0x745d2000)
Function: kernel32.dll!HeapDestroy
Hook address: 0x339e231
Hooking module: <unknown>

Disassembly(0):
0x339e231 55               PUSH EBP
0x339e232 8bec             MOV EBP, ESP
0x339e234 51               PUSH ECX
0x339e235 e8ffa9feff       CALL 0x3388c39
0x339e23a ff7508           PUSH DWORD [EBP+0x8]
0x339e23d ff1548ff4003     CALL DWORD [0x340ff48]
0x339e243 59               POP ECX
0x339e244 5d               POP EBP
0x339e245 c20400           RET 0x4
0x339e248 55               PUSH EBP

************************************************************************
Hook mode: Usermode
Hook type: Import Address Table (IAT)
Process: 1752 (explorer.exe)
Victim module: eappprxy.dll (0x5dcd0000 - 0x5dcde000)
Function: kernel32.dll!HeapDestroy
Hook address: 0x339e231
Hooking module: <unknown>

Disassembly(0):
0x339e231 55               PUSH EBP
0x339e232 8bec             MOV EBP, ESP
0x339e234 51               PUSH ECX
0x339e235 e8ffa9feff       CALL 0x3388c39
0x339e23a ff7508           PUSH DWORD [EBP+0x8]
0x339e23d ff1548ff4003     CALL DWORD [0x340ff48]
0x339e243 59               POP ECX
0x339e244 5d               POP EBP
0x339e245 c20400           RET 0x4
0x339e248 55               PUSH EBP

************************************************************************
Hook mode: Usermode
Hook type: Import Address Table (IAT)
Process: 1752 (explorer.exe)
Victim module: iphlpapi.dll (0x76d60000 - 0x76d79000)
Function: kernel32.dll!HeapDestroy
Hook address: 0x339e231
Hooking module: <unknown>

Disassembly(0):
0x339e231 55               PUSH EBP
0x339e232 8bec             MOV EBP, ESP
0x339e234 51               PUSH ECX
0x339e235 e8ffa9feff       CALL 0x3388c39
0x339e23a ff7508           PUSH DWORD [EBP+0x8]
0x339e23d ff1548ff4003     CALL DWORD [0x340ff48]
0x339e243 59               POP ECX
0x339e244 5d               POP EBP
0x339e245 c20400           RET 0x4
0x339e248 55               PUSH EBP

************************************************************************
Hook mode: Usermode
Hook type: Import Address Table (IAT)
Process: 1752 (explorer.exe)
Victim module: WS2_32.dll (0x71ab0000 - 0x71ac7000)
Function: kernel32.dll!HeapDestroy
Hook address: 0x339e231
Hooking module: <unknown>

Disassembly(0):
0x339e231 55               PUSH EBP
0x339e232 8bec             MOV EBP, ESP
0x339e234 51               PUSH ECX
0x339e235 e8ffa9feff       CALL 0x3388c39
0x339e23a ff7508           PUSH DWORD [EBP+0x8]
0x339e23d ff1548ff4003     CALL DWORD [0x340ff48]
0x339e243 59               POP ECX
0x339e244 5d               POP EBP
0x339e245 c20400           RET 0x4
0x339e248 55               PUSH EBP

************************************************************************
Hook mode: Usermode
Hook type: Import Address Table (IAT)
Process: 1752 (explorer.exe)
Victim module: WS2HELP.dll (0x71aa0000 - 0x71aa8000)
Function: ntdll.dll!NtQueryDirectoryFile
Hook address: 0x339e6b0
Hooking module: <unknown>

Disassembly(0):
0x339e6b0 b889ce3d03       MOV EAX, 0x33dce89
0x339e6b5 e8426b0300       CALL 0x33d51fc
0x339e6ba 51               PUSH ECX
0x339e6bb b868110000       MOV EAX, 0x1168
0x339e6c0 e81bdf0200       CALL 0x33cc5e0
0x339e6c5 53               PUSH EBX
0x339e6c6 56               PUSH ESI
0x339e6c7 57               PUSH EDI

************************************************************************
Hook mode: Usermode
Hook type: Import Address Table (IAT)
Process: 1752 (explorer.exe)
Victim module: zipfldr.dll (0x73380000 - 0x733d7000)
Function: kernel32.dll!HeapDestroy
Hook address: 0x339e231
Hooking module: <unknown>

Disassembly(0):
0x339e231 55               PUSH EBP
0x339e232 8bec             MOV EBP, ESP
0x339e234 51               PUSH ECX
0x339e235 e8ffa9feff       CALL 0x3388c39
0x339e23a ff7508           PUSH DWORD [EBP+0x8]
0x339e23d ff1548ff4003     CALL DWORD [0x340ff48]
0x339e243 59               POP ECX
0x339e244 5d               POP EBP
0x339e245 c20400           RET 0x4
0x339e248 55               PUSH EBP

************************************************************************
Hook mode: Usermode
Hook type: Import Address Table (IAT)
Process: 1752 (explorer.exe)
Victim module: NTMARTA.DLL (0x77690000 - 0x776b1000)
Function: ntdll.dll!NtQueryDirectoryFile
Hook address: 0x339e6b0
Hooking module: <unknown>

Disassembly(0):
0x339e6b0 b889ce3d03       MOV EAX, 0x33dce89
0x339e6b5 e8426b0300       CALL 0x33d51fc
0x339e6ba 51               PUSH ECX
0x339e6bb b868110000       MOV EAX, 0x1168
0x339e6c0 e81bdf0200       CALL 0x33cc5e0
0x339e6c5 53               PUSH EBX
0x339e6c6 56               PUSH ESI
0x339e6c7 57               PUSH EDI

************************************************************************
Hook mode: Usermode
Hook type: Import Address Table (IAT)
Process: 1752 (explorer.exe)
Victim module: wzcdlg.dll (0x5df10000 - 0x5df70000)
Function: kernel32.dll!CreateProcessW
Hook address: 0x339e325
Hooking module: <unknown>

Disassembly(0):
0x339e325 55               PUSH EBP
0x339e326 8bec             MOV EBP, ESP
0x339e328 8b451c           MOV EAX, [EBP+0x1c]
0x339e32b 56               PUSH ESI
0x339e32c 8b752c           MOV ESI, [EBP+0x2c]
0x339e32f 57               PUSH EDI
0x339e330 56               PUSH ESI
0x339e331 ff7528           PUSH DWORD [EBP+0x28]
0x339e334 83c804           OR EAX, 0x4
0x339e337 ff7524           PUSH DWORD [EBP+0x24]
0x339e33a ff7520           PUSH DWORD [EBP+0x20]

************************************************************************
Hook mode: Usermode
Hook type: Import Address Table (IAT)
Process: 1752 (explorer.exe)
Victim module: wzcdlg.dll (0x5df10000 - 0x5df70000)
Function: user32.dll!GetMessageW
Hook address: 0x33adbd7
Hooking module: <unknown>

Disassembly(0):
0x33adbd7 55               PUSH EBP
0x33adbd8 8bec             MOV EBP, ESP
0x33adbda 833d5c00410300   CMP DWORD [0x341005c], 0x0
0x33adbe1 56               PUSH ESI
0x33adbe2 8b7508           MOV ESI, [EBP+0x8]
0x33adbe5 57               PUSH EDI
0x33adbe6 7412             JZ 0x33adbfa
0x33adbe8 8b4604           MOV EAX, [ESI+0x4]
0x33adbeb 83f812           CMP EAX, 0x12
0x33adbee 74               DB 0x74

************************************************************************
Hook mode: Usermode
Hook type: Import Address Table (IAT)
Process: 1752 (explorer.exe)
Victim module: netcfgx.dll (0x755f0000 - 0x7568a000)
Function: kernel32.dll!HeapDestroy
Hook address: 0x339e231
Hooking module: <unknown>

Disassembly(0):
0x339e231 55               PUSH EBP
0x339e232 8bec             MOV EBP, ESP
0x339e234 51               PUSH ECX
0x339e235 e8ffa9feff       CALL 0x3388c39
0x339e23a ff7508           PUSH DWORD [EBP+0x8]
0x339e23d ff1548ff4003     CALL DWORD [0x340ff48]
0x339e243 59               POP ECX
0x339e244 5d               POP EBP
0x339e245 c20400           RET 0x4
0x339e248 55               PUSH EBP

************************************************************************
Hook mode: Usermode
Hook type: Import Address Table (IAT)
Process: 1752 (explorer.exe)
Victim module: DNSAPI.dll (0x76f20000 - 0x76f47000)
Function: kernel32.dll!HeapDestroy
Hook address: 0x339e231
Hooking module: <unknown>

Disassembly(0):
0x339e231 55               PUSH EBP
0x339e232 8bec             MOV EBP, ESP
0x339e234 51               PUSH ECX
0x339e235 e8ffa9feff       CALL 0x3388c39
0x339e23a ff7508           PUSH DWORD [EBP+0x8]
0x339e23d ff1548ff4003     CALL DWORD [0x340ff48]
0x339e243 59               POP ECX
0x339e244 5d               POP EBP
0x339e245 c20400           RET 0x4
0x339e248 55               PUSH EBP

************************************************************************
Hook mode: Usermode
Hook type: Import Address Table (IAT)
Process: 1752 (explorer.exe)
Victim module: hnetcfg.dll (0x662b0000 - 0x66308000)
Function: kernel32.dll!HeapDestroy
Hook address: 0x339e231
Hooking module: <unknown>

Disassembly(0):
0x339e231 55               PUSH EBP
0x339e232 8bec             MOV EBP, ESP
0x339e234 51               PUSH ECX
0x339e235 e8ffa9feff       CALL 0x3388c39
0x339e23a ff7508           PUSH DWORD [EBP+0x8]
0x339e23d ff1548ff4003     CALL DWORD [0x340ff48]
0x339e243 59               POP ECX
0x339e244 5d               POP EBP
0x339e245 c20400           RET 0x4
0x339e248 55               PUSH EBP

************************************************************************
Hook mode: Usermode
Hook type: Import Address Table (IAT)
Process: 1752 (explorer.exe)
Victim module: wbemcomn.dll (0x75290000 - 0x752c7000)
Function: kernel32.dll!HeapDestroy
Hook address: 0x339e231
Hooking module: <unknown>

Disassembly(0):
0x339e231 55               PUSH EBP
0x339e232 8bec             MOV EBP, ESP
0x339e234 51               PUSH ECX
0x339e235 e8ffa9feff       CALL 0x3388c39
0x339e23a ff7508           PUSH DWORD [EBP+0x8]
0x339e23d ff1548ff4003     CALL DWORD [0x340ff48]
0x339e243 59               POP ECX
0x339e244 5d               POP EBP
0x339e245 c20400           RET 0x4
0x339e248 55               PUSH EBP

************************************************************************
Hook mode: Usermode
Hook type: Import Address Table (IAT)
Process: 1752 (explorer.exe)
Victim module: fastprox.dll (0x75690000 - 0x75706000)
Function: kernel32.dll!HeapDestroy
Hook address: 0x339e231
Hooking module: <unknown>

Disassembly(0):
0x339e231 55               PUSH EBP
0x339e232 8bec             MOV EBP, ESP
0x339e234 51               PUSH ECX
0x339e235 e8ffa9feff       CALL 0x3388c39
0x339e23a ff7508           PUSH DWORD [EBP+0x8]
0x339e23d ff1548ff4003     CALL DWORD [0x340ff48]
0x339e243 59               POP ECX
0x339e244 5d               POP EBP
0x339e245 c20400           RET 0x4
0x339e248 55               PUSH EBP

************************************************************************
Hook mode: Usermode
Hook type: Import Address Table (IAT)
Process: 1752 (explorer.exe)
Victim module: NTDSAPI.dll (0x767a0000 - 0x767b3000)
Function: kernel32.dll!HeapDestroy
Hook address: 0x339e231
Hooking module: <unknown>

Disassembly(0):
0x339e231 55               PUSH EBP
0x339e232 8bec             MOV EBP, ESP
0x339e234 51               PUSH ECX
0x339e235 e8ffa9feff       CALL 0x3388c39
0x339e23a ff7508           PUSH DWORD [EBP+0x8]
0x339e23d ff1548ff4003     CALL DWORD [0x340ff48]
0x339e243 59               POP ECX
0x339e244 5d               POP EBP
0x339e245 c20400           RET 0x4
0x339e248 55               PUSH EBP

************************************************************************
Hook mode: Usermode
Hook type: Import Address Table (IAT)
Process: 1752 (explorer.exe)
Victim module: mswsock.dll (0x71a50000 - 0x71a8f000)
Function: kernel32.dll!HeapDestroy
Hook address: 0x339e231
Hooking module: <unknown>

Disassembly(0):
0x339e231 55               PUSH EBP
0x339e232 8bec             MOV EBP, ESP
0x339e234 51               PUSH ECX
0x339e235 e8ffa9feff       CALL 0x3388c39
0x339e23a ff7508           PUSH DWORD [EBP+0x8]
0x339e23d ff1548ff4003     CALL DWORD [0x340ff48]
0x339e243 59               POP ECX
0x339e244 5d               POP EBP
0x339e245 c20400           RET 0x4
0x339e248 55               PUSH EBP

************************************************************************
Hook mode: Usermode
Hook type: Import Address Table (IAT)
Process: 1876 (VMwareTray.exe)
Victim module: VMwareTray.exe (0x400000 - 0x42c000)
Function: user32.dll!GetMessageW
Hook address: 0xf6dbd7
Hooking module: <unknown>

Disassembly(0):
0xf6dbd7 55               PUSH EBP
0xf6dbd8 8bec             MOV EBP, ESP
0xf6dbda 833d5c00fd0000   CMP DWORD [0xfd005c], 0x0
0xf6dbe1 56               PUSH ESI
0xf6dbe2 8b7508           MOV ESI, [EBP+0x8]
0xf6dbe5 57               PUSH EDI
0xf6dbe6 7412             JZ 0xf6dbfa
0xf6dbe8 8b4604           MOV EAX, [ESI+0x4]
0xf6dbeb 83f812           CMP EAX, 0x12
0xf6dbee 74               DB 0x74

************************************************************************
Hook mode: Usermode
Hook type: Import Address Table (IAT)
Process: 1876 (VMwareTray.exe)
Victim module: kernel32.dll (0x7c800000 - 0x7c8f6000)
Function: ntdll.dll!NtEnumerateValueKey
Hook address: 0xf5ec38
Hooking module: <unknown>

Disassembly(0):
0xf5ec38 55               PUSH EBP
0xf5ec39 8bec             MOV EBP, ESP
0xf5ec3b 83ec18           SUB ESP, 0x18
0xf5ec3e 837d0c00         CMP DWORD [EBP+0xc], 0x0
0xf5ec42 7507             JNZ 0xf5ec4b
0xf5ec44 83254cfffc0000   AND DWORD [0xfcff4c], 0x0
0xf5ec4b 53               PUSH EBX
0xf5ec4c 8b5d14           MOV EBX, [EBP+0x14]
0xf5ec4f 56               PUSH ESI

************************************************************************
Hook mode: Usermode
Hook type: Import Address Table (IAT)
Process: 1876 (VMwareTray.exe)
Victim module: kernel32.dll (0x7c800000 - 0x7c8f6000)
Function: ntdll.dll!NtQueryDirectoryFile
Hook address: 0xf5e6b0
Hooking module: <unknown>

Disassembly(0):
0xf5e6b0 b889cef900       MOV EAX, 0xf9ce89
0xf5e6b5 e8426b0300       CALL 0xf951fc
0xf5e6ba 51               PUSH ECX
0xf5e6bb b868110000       MOV EAX, 0x1168
0xf5e6c0 e81bdf0200       CALL 0xf8c5e0
0xf5e6c5 53               PUSH EBX
0xf5e6c6 56               PUSH ESI
0xf5e6c7 57               PUSH EDI

************************************************************************
Hook mode: Usermode
Hook type: Import Address Table (IAT)
Process: 1876 (VMwareTray.exe)
Victim module: USER32.dll (0x7e410000 - 0x7e4a1000)
Function: ntdll.dll!NtEnumerateValueKey
Hook address: 0xf5ec38
Hooking module: <unknown>

Disassembly(0):
0xf5ec38 55               PUSH EBP
0xf5ec39 8bec             MOV EBP, ESP
0xf5ec3b 83ec18           SUB ESP, 0x18
0xf5ec3e 837d0c00         CMP DWORD [EBP+0xc], 0x0
0xf5ec42 7507             JNZ 0xf5ec4b
0xf5ec44 83254cfffc0000   AND DWORD [0xfcff4c], 0x0
0xf5ec4b 53               PUSH EBX
0xf5ec4c 8b5d14           MOV EBX, [EBP+0x14]
0xf5ec4f 56               PUSH ESI

************************************************************************
Hook mode: Usermode
Hook type: Import Address Table (IAT)
Process: 1876 (VMwareTray.exe)
Victim module: USER32.dll (0x7e410000 - 0x7e4a1000)
Function: kernel32.dll!CreateProcessW
Hook address: 0xf5e325
Hooking module: <unknown>

Disassembly(0):
0xf5e325 55               PUSH EBP
0xf5e326 8bec             MOV EBP, ESP
0xf5e328 8b451c           MOV EAX, [EBP+0x1c]
0xf5e32b 56               PUSH ESI
0xf5e32c 8b752c           MOV ESI, [EBP+0x2c]
0xf5e32f 57               PUSH EDI
0xf5e330 56               PUSH ESI
0xf5e331 ff7528           PUSH DWORD [EBP+0x28]
0xf5e334 83c804           OR EAX, 0x4
0xf5e337 ff7524           PUSH DWORD [EBP+0x24]
0xf5e33a ff7520           PUSH DWORD [EBP+0x20]

************************************************************************
Hook mode: Usermode
Hook type: Import Address Table (IAT)
Process: 1876 (VMwareTray.exe)
Victim module: SHELL32.dll (0x7c9c0000 - 0x7d1d7000)
Function: kernel32.dll!CreateProcessW
Hook address: 0xf5e325
Hooking module: <unknown>

Disassembly(0):
0xf5e325 55               PUSH EBP
0xf5e326 8bec             MOV EBP, ESP
0xf5e328 8b451c           MOV EAX, [EBP+0x1c]
0xf5e32b 56               PUSH ESI
0xf5e32c 8b752c           MOV ESI, [EBP+0x2c]
0xf5e32f 57               PUSH EDI
0xf5e330 56               PUSH ESI
0xf5e331 ff7528           PUSH DWORD [EBP+0x28]
0xf5e334 83c804           OR EAX, 0x4
0xf5e337 ff7524           PUSH DWORD [EBP+0x24]
0xf5e33a ff7520           PUSH DWORD [EBP+0x20]

************************************************************************
Hook mode: Usermode
Hook type: Import Address Table (IAT)
Process: 1876 (VMwareTray.exe)
Victim module: SHELL32.dll (0x7c9c0000 - 0x7d1d7000)
Function: ntdll.dll!NtEnumerateValueKey
Hook address: 0xf5ec38
Hooking module: <unknown>

Disassembly(0):
0xf5ec38 55               PUSH EBP
0xf5ec39 8bec             MOV EBP, ESP
0xf5ec3b 83ec18           SUB ESP, 0x18
0xf5ec3e 837d0c00         CMP DWORD [EBP+0xc], 0x0
0xf5ec42 7507             JNZ 0xf5ec4b
0xf5ec44 83254cfffc0000   AND DWORD [0xfcff4c], 0x0
0xf5ec4b 53               PUSH EBX
0xf5ec4c 8b5d14           MOV EBX, [EBP+0x14]
0xf5ec4f 56               PUSH ESI

************************************************************************
Hook mode: Usermode
Hook type: Import Address Table (IAT)
Process: 1876 (VMwareTray.exe)
Victim module: SHELL32.dll (0x7c9c0000 - 0x7d1d7000)
Function: user32.dll!GetMessageW
Hook address: 0xf6dbd7
Hooking module: <unknown>

Disassembly(0):
0xf6dbd7 55               PUSH EBP
0xf6dbd8 8bec             MOV EBP, ESP
0xf6dbda 833d5c00fd0000   CMP DWORD [0xfd005c], 0x0
0xf6dbe1 56               PUSH ESI
0xf6dbe2 8b7508           MOV ESI, [EBP+0x8]
0xf6dbe5 57               PUSH EDI
0xf6dbe6 7412             JZ 0xf6dbfa
0xf6dbe8 8b4604           MOV EAX, [ESI+0x4]
0xf6dbeb 83f812           CMP EAX, 0x12
0xf6dbee 74               DB 0x74

************************************************************************
Hook mode: Usermode
Hook type: Import Address Table (IAT)
Process: 1876 (VMwareTray.exe)
Victim module: SHELL32.dll (0x7c9c0000 - 0x7d1d7000)
Function: user32.dll!ExitWindowsEx
Hook address: 0xf6db80
Hooking module: <unknown>

Disassembly(0):
0xf6db80 55               PUSH EBP
0xf6db81 8bec             MOV EBP, ESP
0xf6db83 51               PUSH ECX
0xf6db84 56               PUSH ESI
0xf6db85 ff152c14fa00     CALL DWORD [0xfa142c]
0xf6db8b 2b051800fd00     SUB EAX, [0xfd0018]
0xf6db91 3dc0d40100       CMP EAX, 0x1d4c0
0xf6db96 762d             JBE 0xf6dbc5

************************************************************************
Hook mode: Usermode
Hook type: Import Address Table (IAT)
Process: 1876 (VMwareTray.exe)
Victim module: ADVAPI32.dll (0x77dd0000 - 0x77e6b000)
Function: ntdll.dll!NtEnumerateValueKey
Hook address: 0xf5ec38
Hooking module: <unknown>

Disassembly(0):
0xf5ec38 55               PUSH EBP
0xf5ec39 8bec             MOV EBP, ESP
0xf5ec3b 83ec18           SUB ESP, 0x18
0xf5ec3e 837d0c00         CMP DWORD [EBP+0xc], 0x0
0xf5ec42 7507             JNZ 0xf5ec4b
0xf5ec44 83254cfffc0000   AND DWORD [0xfcff4c], 0x0
0xf5ec4b 53               PUSH EBX
0xf5ec4c 8b5d14           MOV EBX, [EBP+0x14]
0xf5ec4f 56               PUSH ESI

************************************************************************
Hook mode: Usermode
Hook type: Import Address Table (IAT)
Process: 1876 (VMwareTray.exe)
Victim module: msvcrt.dll (0x77c10000 - 0x77c68000)
Function: kernel32.dll!CreateProcessA
Hook address: 0xf5e2e0
Hooking module: <unknown>

Disassembly(0):
0xf5e2e0 55               PUSH EBP
0xf5e2e1 8bec             MOV EBP, ESP
0xf5e2e3 8b451c           MOV EAX, [EBP+0x1c]
0xf5e2e6 56               PUSH ESI
0xf5e2e7 8b752c           MOV ESI, [EBP+0x2c]
0xf5e2ea 57               PUSH EDI
0xf5e2eb 56               PUSH ESI
0xf5e2ec ff7528           PUSH DWORD [EBP+0x28]
0xf5e2ef 83c804           OR EAX, 0x4
0xf5e2f2 ff7524           PUSH DWORD [EBP+0x24]
0xf5e2f5 ff7520           PUSH DWORD [EBP+0x20]

************************************************************************
Hook mode: Usermode
Hook type: Import Address Table (IAT)
Process: 1876 (VMwareTray.exe)
Victim module: msvcrt.dll (0x77c10000 - 0x77c68000)
Function: kernel32.dll!CreateProcessW
Hook address: 0xf5e325
Hooking module: <unknown>

Disassembly(0):
0xf5e325 55               PUSH EBP
0xf5e326 8bec             MOV EBP, ESP
0xf5e328 8b451c           MOV EAX, [EBP+0x1c]
0xf5e32b 56               PUSH ESI
0xf5e32c 8b752c           MOV ESI, [EBP+0x2c]
0xf5e32f 57               PUSH EDI
0xf5e330 56               PUSH ESI
0xf5e331 ff7528           PUSH DWORD [EBP+0x28]
0xf5e334 83c804           OR EAX, 0x4
0xf5e337 ff7524           PUSH DWORD [EBP+0x24]
0xf5e33a ff7520           PUSH DWORD [EBP+0x20]

************************************************************************
Hook mode: Usermode
Hook type: Import Address Table (IAT)
Process: 1876 (VMwareTray.exe)
Victim module: SHLWAPI.dll (0x77f60000 - 0x77fd6000)
Function: kernel32.dll!CreateProcessA
Hook address: 0xf5e2e0
Hooking module: <unknown>

Disassembly(0):
0xf5e2e0 55               PUSH EBP
0xf5e2e1 8bec             MOV EBP, ESP
0xf5e2e3 8b451c           MOV EAX, [EBP+0x1c]
0xf5e2e6 56               PUSH ESI
0xf5e2e7 8b752c           MOV ESI, [EBP+0x2c]
0xf5e2ea 57               PUSH EDI
0xf5e2eb 56               PUSH ESI
0xf5e2ec ff7528           PUSH DWORD [EBP+0x28]
0xf5e2ef 83c804           OR EAX, 0x4
0xf5e2f2 ff7524           PUSH DWORD [EBP+0x24]
0xf5e2f5 ff7520           PUSH DWORD [EBP+0x20]

************************************************************************
Hook mode: Usermode
Hook type: Import Address Table (IAT)
Process: 1876 (VMwareTray.exe)
Victim module: SHLWAPI.dll (0x77f60000 - 0x77fd6000)
Function: kernel32.dll!CreateProcessW
Hook address: 0xf5e325
Hooking module: <unknown>

Disassembly(0):
0xf5e325 55               PUSH EBP
0xf5e326 8bec             MOV EBP, ESP
0xf5e328 8b451c           MOV EAX, [EBP+0x1c]
0xf5e32b 56               PUSH ESI
0xf5e32c 8b752c           MOV ESI, [EBP+0x2c]
0xf5e32f 57               PUSH EDI
0xf5e330 56               PUSH ESI
0xf5e331 ff7528           PUSH DWORD [EBP+0x28]
0xf5e334 83c804           OR EAX, 0x4
0xf5e337 ff7524           PUSH DWORD [EBP+0x24]
0xf5e33a ff7520           PUSH DWORD [EBP+0x20]

************************************************************************
Hook mode: Usermode
Hook type: Import Address Table (IAT)
Process: 1876 (VMwareTray.exe)
Victim module: SHLWAPI.dll (0x77f60000 - 0x77fd6000)
Function: user32.dll!GetMessageW
Hook address: 0xf6dbd7
Hooking module: <unknown>

Disassembly(0):
0xf6dbd7 55               PUSH EBP
0xf6dbd8 8bec             MOV EBP, ESP
0xf6dbda 833d5c00fd0000   CMP DWORD [0xfd005c], 0x0
0xf6dbe1 56               PUSH ESI
0xf6dbe2 8b7508           MOV ESI, [EBP+0x8]
0xf6dbe5 57               PUSH EDI
0xf6dbe6 7412             JZ 0xf6dbfa
0xf6dbe8 8b4604           MOV EAX, [ESI+0x4]
0xf6dbeb 83f812           CMP EAX, 0x12
0xf6dbee 74               DB 0x74

************************************************************************
Hook mode: Usermode
Hook type: Import Address Table (IAT)
Process: 1876 (VMwareTray.exe)
Victim module: VMControlPanel.cpl (0x10000000 - 0x10089000)
Function: kernel32.dll!CreateProcessW
Hook address: 0xf5e325
Hooking module: <unknown>

Disassembly(0):
0xf5e325 55               PUSH EBP
0xf5e326 8bec             MOV EBP, ESP
0xf5e328 8b451c           MOV EAX, [EBP+0x1c]
0xf5e32b 56               PUSH ESI
0xf5e32c 8b752c           MOV ESI, [EBP+0x2c]
0xf5e32f 57               PUSH EDI
0xf5e330 56               PUSH ESI
0xf5e331 ff7528           PUSH DWORD [EBP+0x28]
0xf5e334 83c804           OR EAX, 0x4
0xf5e337 ff7524           PUSH DWORD [EBP+0x24]
0xf5e33a ff7520           PUSH DWORD [EBP+0x20]

************************************************************************
Hook mode: Usermode
Hook type: Import Address Table (IAT)
Process: 1876 (VMwareTray.exe)
Victim module: ole32.dll (0x774e0000 - 0x7761e000)
Function: kernel32.dll!CreateProcessW
Hook address: 0xf5e325
Hooking module: <unknown>

Disassembly(0):
0xf5e325 55               PUSH EBP
0xf5e326 8bec             MOV EBP, ESP
0xf5e328 8b451c           MOV EAX, [EBP+0x1c]
0xf5e32b 56               PUSH ESI
0xf5e32c 8b752c           MOV ESI, [EBP+0x2c]
0xf5e32f 57               PUSH EDI
0xf5e330 56               PUSH ESI
0xf5e331 ff7528           PUSH DWORD [EBP+0x28]
0xf5e334 83c804           OR EAX, 0x4
0xf5e337 ff7524           PUSH DWORD [EBP+0x24]
0xf5e33a ff7520           PUSH DWORD [EBP+0x20]

************************************************************************
Hook mode: Usermode
Hook type: Import Address Table (IAT)
Process: 1876 (VMwareTray.exe)
Victim module: ole32.dll (0x774e0000 - 0x7761e000)
Function: user32.dll!GetMessageW
Hook address: 0xf6dbd7
Hooking module: <unknown>

Disassembly(0):
0xf6dbd7 55               PUSH EBP
0xf6dbd8 8bec             MOV EBP, ESP
0xf6dbda 833d5c00fd0000   CMP DWORD [0xfd005c], 0x0
0xf6dbe1 56               PUSH ESI
0xf6dbe2 8b7508           MOV ESI, [EBP+0x8]
0xf6dbe5 57               PUSH EDI
0xf6dbe6 7412             JZ 0xf6dbfa
0xf6dbe8 8b4604           MOV EAX, [ESI+0x4]
0xf6dbeb 83f812           CMP EAX, 0x12
0xf6dbee 74               DB 0x74

************************************************************************
Hook mode: Usermode
Hook type: Import Address Table (IAT)
Process: 1876 (VMwareTray.exe)
Victim module: MSVCR80.dll (0x78130000 - 0x781cb000)
Function: kernel32.dll!CreateProcessA
Hook address: 0xf5e2e0
Hooking module: <unknown>

Disassembly(0):
0xf5e2e0 55               PUSH EBP
0xf5e2e1 8bec             MOV EBP, ESP
0xf5e2e3 8b451c           MOV EAX, [EBP+0x1c]
0xf5e2e6 56               PUSH ESI
0xf5e2e7 8b752c           MOV ESI, [EBP+0x2c]
0xf5e2ea 57               PUSH EDI
0xf5e2eb 56               PUSH ESI
0xf5e2ec ff7528           PUSH DWORD [EBP+0x28]
0xf5e2ef 83c804           OR EAX, 0x4
0xf5e2f2 ff7524           PUSH DWORD [EBP+0x24]
0xf5e2f5 ff7520           PUSH DWORD [EBP+0x20]

************************************************************************
Hook mode: Usermode
Hook type: Import Address Table (IAT)
Process: 1876 (VMwareTray.exe)
Victim module: MSVCR80.dll (0x78130000 - 0x781cb000)
Function: kernel32.dll!CreateProcessW
Hook address: 0xf5e325
Hooking module: <unknown>

Disassembly(0):
0xf5e325 55               PUSH EBP
0xf5e326 8bec             MOV EBP, ESP
0xf5e328 8b451c           MOV EAX, [EBP+0x1c]
0xf5e32b 56               PUSH ESI
0xf5e32c 8b752c           MOV ESI, [EBP+0x2c]
0xf5e32f 57               PUSH EDI
0xf5e330 56               PUSH ESI
0xf5e331 ff7528           PUSH DWORD [EBP+0x28]
0xf5e334 83c804           OR EAX, 0x4
0xf5e337 ff7524           PUSH DWORD [EBP+0x24]
0xf5e33a ff7520           PUSH DWORD [EBP+0x20]

************************************************************************
Hook mode: Usermode
Hook type: Import Address Table (IAT)
Process: 1876 (VMwareTray.exe)
Victim module: WS2HELP.dll (0x71aa0000 - 0x71aa8000)
Function: ntdll.dll!NtQueryDirectoryFile
Hook address: 0xf5e6b0
Hooking module: <unknown>

Disassembly(0):
0xf5e6b0 b889cef900       MOV EAX, 0xf9ce89
0xf5e6b5 e8426b0300       CALL 0xf951fc
0xf5e6ba 51               PUSH ECX
0xf5e6bb b868110000       MOV EAX, 0x1168
0xf5e6c0 e81bdf0200       CALL 0xf8c5e0
0xf5e6c5 53               PUSH EBX
0xf5e6c6 56               PUSH ESI
0xf5e6c7 57               PUSH EDI

************************************************************************
Hook mode: Usermode
Hook type: Import Address Table (IAT)
Process: 1876 (VMwareTray.exe)
Victim module: vmtools.dll (0x600000 - 0x67a000)
Function: kernel32.dll!CreateProcessW
Hook address: 0xf5e325
Hooking module: <unknown>

Disassembly(0):
0xf5e325 55               PUSH EBP
0xf5e326 8bec             MOV EBP, ESP
0xf5e328 8b451c           MOV EAX, [EBP+0x1c]
0xf5e32b 56               PUSH ESI
0xf5e32c 8b752c           MOV ESI, [EBP+0x2c]
0xf5e32f 57               PUSH EDI
0xf5e330 56               PUSH ESI
0xf5e331 ff7528           PUSH DWORD [EBP+0x28]
0xf5e334 83c804           OR EAX, 0x4
0xf5e337 ff7524           PUSH DWORD [EBP+0x24]
0xf5e33a ff7520           PUSH DWORD [EBP+0x20]

************************************************************************
Hook mode: Usermode
Hook type: Import Address Table (IAT)
Process: 1876 (VMwareTray.exe)
Victim module: vmtools.dll (0x600000 - 0x67a000)
Function: user32.dll!ExitWindowsEx
Hook address: 0xf6db80
Hooking module: <unknown>

Disassembly(0):
0xf6db80 55               PUSH EBP
0xf6db81 8bec             MOV EBP, ESP
0xf6db83 51               PUSH ECX
0xf6db84 56               PUSH ESI
0xf6db85 ff152c14fa00     CALL DWORD [0xfa142c]
0xf6db8b 2b051800fd00     SUB EAX, [0xfd0018]
0xf6db91 3dc0d40100       CMP EAX, 0x1d4c0
0xf6db96 762d             JBE 0xf6dbc5

************************************************************************
Hook mode: Usermode
Hook type: Import Address Table (IAT)
Process: 1876 (VMwareTray.exe)
Victim module: OLEAUT32.dll (0x77120000 - 0x771ab000)
Function: user32.dll!GetMessageW
Hook address: 0xf6dbd7
Hooking module: <unknown>

Disassembly(0):
0xf6dbd7 55               PUSH EBP
0xf6dbd8 8bec             MOV EBP, ESP
0xf6dbda 833d5c00fd0000   CMP DWORD [0xfd005c], 0x0
0xf6dbe1 56               PUSH ESI
0xf6dbe2 8b7508           MOV ESI, [EBP+0x8]
0xf6dbe5 57               PUSH EDI
0xf6dbe6 7412             JZ 0xf6dbfa
0xf6dbe8 8b4604           MOV EAX, [ESI+0x4]
0xf6dbeb 83f812           CMP EAX, 0x12
0xf6dbee 74               DB 0x74

************************************************************************
Hook mode: Usermode
Hook type: Import Address Table (IAT)
Process: 1876 (VMwareTray.exe)
Victim module: comctl32.dll (0x5d090000 - 0x5d12a000)
Function: user32.dll!GetMessageW
Hook address: 0xf6dbd7
Hooking module: <unknown>

Disassembly(0):
0xf6dbd7 55               PUSH EBP
0xf6dbd8 8bec             MOV EBP, ESP
0xf6dbda 833d5c00fd0000   CMP DWORD [0xfd005c], 0x0
0xf6dbe1 56               PUSH ESI
0xf6dbe2 8b7508           MOV ESI, [EBP+0x8]
0xf6dbe5 57               PUSH EDI
0xf6dbe6 7412             JZ 0xf6dbfa
0xf6dbe8 8b4604           MOV EAX, [ESI+0x4]
0xf6dbeb 83f812           CMP EAX, 0x12
0xf6dbee 74               DB 0x74

************************************************************************
Hook mode: Usermode
Hook type: Import Address Table (IAT)
Process: 1876 (VMwareTray.exe)
Victim module: MSCTF.dll (0x74720000 - 0x7476c000)
Function: kernel32.dll!CreateProcessA
Hook address: 0xf5e2e0
Hooking module: <unknown>

Disassembly(0):
0xf5e2e0 55               PUSH EBP
0xf5e2e1 8bec             MOV EBP, ESP
0xf5e2e3 8b451c           MOV EAX, [EBP+0x1c]
0xf5e2e6 56               PUSH ESI
0xf5e2e7 8b752c           MOV ESI, [EBP+0x2c]
0xf5e2ea 57               PUSH EDI
0xf5e2eb 56               PUSH ESI
0xf5e2ec ff7528           PUSH DWORD [EBP+0x28]
0xf5e2ef 83c804           OR EAX, 0x4
0xf5e2f2 ff7524           PUSH DWORD [EBP+0x24]
0xf5e2f5 ff7520           PUSH DWORD [EBP+0x20]

************************************************************************
Hook mode: Usermode
Hook type: Import Address Table (IAT)
Process: 1876 (VMwareTray.exe)
Victim module: MSCTF.dll (0x74720000 - 0x7476c000)
Function: user32.dll!GetMessageW
Hook address: 0xf6dbd7
Hooking module: <unknown>

Disassembly(0):
0xf6dbd7 55               PUSH EBP
0xf6dbd8 8bec             MOV EBP, ESP
0xf6dbda 833d5c00fd0000   CMP DWORD [0xfd005c], 0x0
0xf6dbe1 56               PUSH ESI
0xf6dbe2 8b7508           MOV ESI, [EBP+0x8]
0xf6dbe5 57               PUSH EDI
0xf6dbe6 7412             JZ 0xf6dbfa
0xf6dbe8 8b4604           MOV EAX, [ESI+0x4]
0xf6dbeb 83f812           CMP EAX, 0x12
0xf6dbee 74               DB 0x74

************************************************************************
Hook mode: Usermode
Hook type: Import Address Table (IAT)
Process: 1876 (VMwareTray.exe)
Victim module: iertutil.dll (0x3dfd0000 - 0x3e015000)
Function: user32.dll!GetMessageW
Hook address: 0xf6dbd7
Hooking module: <unknown>

Disassembly(0):
0xf6dbd7 55               PUSH EBP
0xf6dbd8 8bec             MOV EBP, ESP
0xf6dbda 833d5c00fd0000   CMP DWORD [0xfd005c], 0x0
0xf6dbe1 56               PUSH ESI
0xf6dbe2 8b7508           MOV ESI, [EBP+0x8]
0xf6dbe5 57               PUSH EDI
0xf6dbe6 7412             JZ 0xf6dbfa
0xf6dbe8 8b4604           MOV EAX, [ESI+0x4]
0xf6dbeb 83f812           CMP EAX, 0x12
0xf6dbee 74               DB 0x74

************************************************************************
Hook mode: Usermode
Hook type: Import Address Table (IAT)
Process: 1876 (VMwareTray.exe)
Victim module: USERENV.dll (0x769c0000 - 0x76a74000)
Function: kernel32.dll!CreateProcessW
Hook address: 0xf5e325
Hooking module: <unknown>

Disassembly(0):
0xf5e325 55               PUSH EBP
0xf5e326 8bec             MOV EBP, ESP
0xf5e328 8b451c           MOV EAX, [EBP+0x1c]
0xf5e32b 56               PUSH ESI
0xf5e32c 8b752c           MOV ESI, [EBP+0x2c]
0xf5e32f 57               PUSH EDI
0xf5e330 56               PUSH ESI
0xf5e331 ff7528           PUSH DWORD [EBP+0x28]
0xf5e334 83c804           OR EAX, 0x4
0xf5e337 ff7524           PUSH DWORD [EBP+0x24]
0xf5e33a ff7520           PUSH DWORD [EBP+0x20]

************************************************************************
Hook mode: Usermode
Hook type: Import Address Table (IAT)
Process: 1888 (VMwareUser.exe)
Victim module: VMwareUser.exe (0x400000 - 0x578000)
Function: kernel32.dll!CreateProcessW
Hook address: 0x208e325
Hooking module: <unknown>

Disassembly(0):
0x208e325 55               PUSH EBP
0x208e326 8bec             MOV EBP, ESP
0x208e328 8b451c           MOV EAX, [EBP+0x1c]
0x208e32b 56               PUSH ESI
0x208e32c 8b752c           MOV ESI, [EBP+0x2c]
0x208e32f 57               PUSH EDI
0x208e330 56               PUSH ESI
0x208e331 ff7528           PUSH DWORD [EBP+0x28]
0x208e334 83c804           OR EAX, 0x4
0x208e337 ff7524           PUSH DWORD [EBP+0x24]
0x208e33a ff7520           PUSH DWORD [EBP+0x20]

************************************************************************
Hook mode: Usermode
Hook type: Import Address Table (IAT)
Process: 1888 (VMwareUser.exe)
Victim module: VMwareUser.exe (0x400000 - 0x578000)
Function: kernel32.dll!CreateProcessA
Hook address: 0x208e2e0
Hooking module: <unknown>

Disassembly(0):
0x208e2e0 55               PUSH EBP
0x208e2e1 8bec             MOV EBP, ESP
0x208e2e3 8b451c           MOV EAX, [EBP+0x1c]
0x208e2e6 56               PUSH ESI
0x208e2e7 8b752c           MOV ESI, [EBP+0x2c]
0x208e2ea 57               PUSH EDI
0x208e2eb 56               PUSH ESI
0x208e2ec ff7528           PUSH DWORD [EBP+0x28]
0x208e2ef 83c804           OR EAX, 0x4
0x208e2f2 ff7524           PUSH DWORD [EBP+0x24]
0x208e2f5 ff7520           PUSH DWORD [EBP+0x20]

************************************************************************
Hook mode: Usermode
Hook type: Import Address Table (IAT)
Process: 1888 (VMwareUser.exe)
Victim module: VMwareUser.exe (0x400000 - 0x578000)
Function: user32.dll!ExitWindowsEx
Hook address: 0x209db80
Hooking module: <unknown>

Disassembly(0):
0x209db80 55               PUSH EBP
0x209db81 8bec             MOV EBP, ESP
0x209db83 51               PUSH ECX
0x209db84 56               PUSH ESI
0x209db85 ff152c140d02     CALL DWORD [0x20d142c]
0x209db8b 2b0518001002     SUB EAX, [0x2100018]
0x209db91 3dc0d40100       CMP EAX, 0x1d4c0
0x209db96 762d             JBE 0x209dbc5

************************************************************************
Hook mode: Usermode
Hook type: Import Address Table (IAT)
Process: 1888 (VMwareUser.exe)
Victim module: kernel32.dll (0x7c800000 - 0x7c8f6000)
Function: ntdll.dll!NtEnumerateValueKey
Hook address: 0x208ec38
Hooking module: <unknown>

Disassembly(0):
0x208ec38 55               PUSH EBP
0x208ec39 8bec             MOV EBP, ESP
0x208ec3b 83ec18           SUB ESP, 0x18
0x208ec3e 837d0c00         CMP DWORD [EBP+0xc], 0x0
0x208ec42 7507             JNZ 0x208ec4b
0x208ec44 83254cff0f0200   AND DWORD [0x20fff4c], 0x0
0x208ec4b 53               PUSH EBX
0x208ec4c 8b5d14           MOV EBX, [EBP+0x14]
0x208ec4f 56               PUSH ESI

************************************************************************
Hook mode: Usermode
Hook type: Import Address Table (IAT)
Process: 1888 (VMwareUser.exe)
Victim module: kernel32.dll (0x7c800000 - 0x7c8f6000)
Function: ntdll.dll!NtQueryDirectoryFile
Hook address: 0x208e6b0
Hooking module: <unknown>

Disassembly(0):
0x208e6b0 b889ce0c02       MOV EAX, 0x20cce89
0x208e6b5 e8426b0300       CALL 0x20c51fc
0x208e6ba 51               PUSH ECX
0x208e6bb b868110000       MOV EAX, 0x1168
0x208e6c0 e81bdf0200       CALL 0x20bc5e0
0x208e6c5 53               PUSH EBX
0x208e6c6 56               PUSH ESI
0x208e6c7 57               PUSH EDI

************************************************************************
Hook mode: Usermode
Hook type: Import Address Table (IAT)
Process: 1888 (VMwareUser.exe)
Victim module: USER32.dll (0x7e410000 - 0x7e4a1000)
Function: ntdll.dll!NtEnumerateValueKey
Hook address: 0x208ec38
Hooking module: <unknown>

Disassembly(0):
0x208ec38 55               PUSH EBP
0x208ec39 8bec             MOV EBP, ESP
0x208ec3b 83ec18           SUB ESP, 0x18
0x208ec3e 837d0c00         CMP DWORD [EBP+0xc], 0x0
0x208ec42 7507             JNZ 0x208ec4b
0x208ec44 83254cff0f0200   AND DWORD [0x20fff4c], 0x0
0x208ec4b 53               PUSH EBX
0x208ec4c 8b5d14           MOV EBX, [EBP+0x14]
0x208ec4f 56               PUSH ESI

************************************************************************
Hook mode: Usermode
Hook type: Import Address Table (IAT)
Process: 1888 (VMwareUser.exe)
Victim module: USER32.dll (0x7e410000 - 0x7e4a1000)
Function: kernel32.dll!CreateProcessW
Hook address: 0x208e325
Hooking module: <unknown>

Disassembly(0):
0x208e325 55               PUSH EBP
0x208e326 8bec             MOV EBP, ESP
0x208e328 8b451c           MOV EAX, [EBP+0x1c]
0x208e32b 56               PUSH ESI
0x208e32c 8b752c           MOV ESI, [EBP+0x2c]
0x208e32f 57               PUSH EDI
0x208e330 56               PUSH ESI
0x208e331 ff7528           PUSH DWORD [EBP+0x28]
0x208e334 83c804           OR EAX, 0x4
0x208e337 ff7524           PUSH DWORD [EBP+0x24]
0x208e33a ff7520           PUSH DWORD [EBP+0x20]

************************************************************************
Hook mode: Usermode
Hook type: Import Address Table (IAT)
Process: 1888 (VMwareUser.exe)
Victim module: ADVAPI32.dll (0x77dd0000 - 0x77e6b000)
Function: ntdll.dll!NtEnumerateValueKey
Hook address: 0x208ec38
Hooking module: <unknown>

Disassembly(0):
0x208ec38 55               PUSH EBP
0x208ec39 8bec             MOV EBP, ESP
0x208ec3b 83ec18           SUB ESP, 0x18
0x208ec3e 837d0c00         CMP DWORD [EBP+0xc], 0x0
0x208ec42 7507             JNZ 0x208ec4b
0x208ec44 83254cff0f0200   AND DWORD [0x20fff4c], 0x0
0x208ec4b 53               PUSH EBX
0x208ec4c 8b5d14           MOV EBX, [EBP+0x14]
0x208ec4f 56               PUSH ESI

************************************************************************
Hook mode: Usermode
Hook type: Import Address Table (IAT)
Process: 1888 (VMwareUser.exe)
Victim module: msvcrt.dll (0x77c10000 - 0x77c68000)
Function: kernel32.dll!CreateProcessA
Hook address: 0x208e2e0
Hooking module: <unknown>

Disassembly(0):
0x208e2e0 55               PUSH EBP
0x208e2e1 8bec             MOV EBP, ESP
0x208e2e3 8b451c           MOV EAX, [EBP+0x1c]
0x208e2e6 56               PUSH ESI
0x208e2e7 8b752c           MOV ESI, [EBP+0x2c]
0x208e2ea 57               PUSH EDI
0x208e2eb 56               PUSH ESI
0x208e2ec ff7528           PUSH DWORD [EBP+0x28]
0x208e2ef 83c804           OR EAX, 0x4
0x208e2f2 ff7524           PUSH DWORD [EBP+0x24]
0x208e2f5 ff7520           PUSH DWORD [EBP+0x20]

************************************************************************
Hook mode: Usermode
Hook type: Import Address Table (IAT)
Process: 1888 (VMwareUser.exe)
Victim module: msvcrt.dll (0x77c10000 - 0x77c68000)
Function: kernel32.dll!CreateProcessW
Hook address: 0x208e325
Hooking module: <unknown>

Disassembly(0):
0x208e325 55               PUSH EBP
0x208e326 8bec             MOV EBP, ESP
0x208e328 8b451c           MOV EAX, [EBP+0x1c]
0x208e32b 56               PUSH ESI
0x208e32c 8b752c           MOV ESI, [EBP+0x2c]
0x208e32f 57               PUSH EDI
0x208e330 56               PUSH ESI
0x208e331 ff7528           PUSH DWORD [EBP+0x28]
0x208e334 83c804           OR EAX, 0x4
0x208e337 ff7524           PUSH DWORD [EBP+0x24]
0x208e33a ff7520           PUSH DWORD [EBP+0x20]

************************************************************************
Hook mode: Usermode
Hook type: Import Address Table (IAT)
Process: 1888 (VMwareUser.exe)
Victim module: SHELL32.dll (0x7c9c0000 - 0x7d1d7000)
Function: kernel32.dll!CreateProcessW
Hook address: 0x208e325
Hooking module: <unknown>

Disassembly(0):
0x208e325 55               PUSH EBP
0x208e326 8bec             MOV EBP, ESP
0x208e328 8b451c           MOV EAX, [EBP+0x1c]
0x208e32b 56               PUSH ESI
0x208e32c 8b752c           MOV ESI, [EBP+0x2c]
0x208e32f 57               PUSH EDI
0x208e330 56               PUSH ESI
0x208e331 ff7528           PUSH DWORD [EBP+0x28]
0x208e334 83c804           OR EAX, 0x4
0x208e337 ff7524           PUSH DWORD [EBP+0x24]
0x208e33a ff7520           PUSH DWORD [EBP+0x20]

************************************************************************
Hook mode: Usermode
Hook type: Import Address Table (IAT)
Process: 1888 (VMwareUser.exe)
Victim module: SHELL32.dll (0x7c9c0000 - 0x7d1d7000)
Function: ntdll.dll!NtEnumerateValueKey
Hook address: 0x208ec38
Hooking module: <unknown>

Disassembly(0):
0x208ec38 55               PUSH EBP
0x208ec39 8bec             MOV EBP, ESP
0x208ec3b 83ec18           SUB ESP, 0x18
0x208ec3e 837d0c00         CMP DWORD [EBP+0xc], 0x0
0x208ec42 7507             JNZ 0x208ec4b
0x208ec44 83254cff0f0200   AND DWORD [0x20fff4c], 0x0
0x208ec4b 53               PUSH EBX
0x208ec4c 8b5d14           MOV EBX, [EBP+0x14]
0x208ec4f 56               PUSH ESI

************************************************************************
Hook mode: Usermode
Hook type: Import Address Table (IAT)
Process: 1888 (VMwareUser.exe)
Victim module: SHELL32.dll (0x7c9c0000 - 0x7d1d7000)
Function: user32.dll!GetMessageW
Hook address: 0x209dbd7
Hooking module: <unknown>

Disassembly(0):
0x209dbd7 55               PUSH EBP
0x209dbd8 8bec             MOV EBP, ESP
0x209dbda 833d5c00100200   CMP DWORD [0x210005c], 0x0
0x209dbe1 56               PUSH ESI
0x209dbe2 8b7508           MOV ESI, [EBP+0x8]
0x209dbe5 57               PUSH EDI
0x209dbe6 7412             JZ 0x209dbfa
0x209dbe8 8b4604           MOV EAX, [ESI+0x4]
0x209dbeb 83f812           CMP EAX, 0x12
0x209dbee 74               DB 0x74

************************************************************************
Hook mode: Usermode
Hook type: Import Address Table (IAT)
Process: 1888 (VMwareUser.exe)
Victim module: SHELL32.dll (0x7c9c0000 - 0x7d1d7000)
Function: user32.dll!ExitWindowsEx
Hook address: 0x209db80
Hooking module: <unknown>

Disassembly(0):
0x209db80 55               PUSH EBP
0x209db81 8bec             MOV EBP, ESP
0x209db83 51               PUSH ECX
0x209db84 56               PUSH ESI
0x209db85 ff152c140d02     CALL DWORD [0x20d142c]
0x209db8b 2b0518001002     SUB EAX, [0x2100018]
0x209db91 3dc0d40100       CMP EAX, 0x1d4c0
0x209db96 762d             JBE 0x209dbc5

************************************************************************
Hook mode: Usermode
Hook type: Import Address Table (IAT)
Process: 1888 (VMwareUser.exe)
Victim module: SHLWAPI.dll (0x77f60000 - 0x77fd6000)
Function: kernel32.dll!CreateProcessA
Hook address: 0x208e2e0
Hooking module: <unknown>

Disassembly(0):
0x208e2e0 55               PUSH EBP
0x208e2e1 8bec             MOV EBP, ESP
0x208e2e3 8b451c           MOV EAX, [EBP+0x1c]
0x208e2e6 56               PUSH ESI
0x208e2e7 8b752c           MOV ESI, [EBP+0x2c]
0x208e2ea 57               PUSH EDI
0x208e2eb 56               PUSH ESI
0x208e2ec ff7528           PUSH DWORD [EBP+0x28]
0x208e2ef 83c804           OR EAX, 0x4
0x208e2f2 ff7524           PUSH DWORD [EBP+0x24]
0x208e2f5 ff7520           PUSH DWORD [EBP+0x20]

************************************************************************
Hook mode: Usermode
Hook type: Import Address Table (IAT)
Process: 1888 (VMwareUser.exe)
Victim module: SHLWAPI.dll (0x77f60000 - 0x77fd6000)
Function: kernel32.dll!CreateProcessW
Hook address: 0x208e325
Hooking module: <unknown>

Disassembly(0):
0x208e325 55               PUSH EBP
0x208e326 8bec             MOV EBP, ESP
0x208e328 8b451c           MOV EAX, [EBP+0x1c]
0x208e32b 56               PUSH ESI
0x208e32c 8b752c           MOV ESI, [EBP+0x2c]
0x208e32f 57               PUSH EDI
0x208e330 56               PUSH ESI
0x208e331 ff7528           PUSH DWORD [EBP+0x28]
0x208e334 83c804           OR EAX, 0x4
0x208e337 ff7524           PUSH DWORD [EBP+0x24]
0x208e33a ff7520           PUSH DWORD [EBP+0x20]

************************************************************************
Hook mode: Usermode
Hook type: Import Address Table (IAT)
Process: 1888 (VMwareUser.exe)
Victim module: SHLWAPI.dll (0x77f60000 - 0x77fd6000)
Function: user32.dll!GetMessageW
Hook address: 0x209dbd7
Hooking module: <unknown>

Disassembly(0):
0x209dbd7 55               PUSH EBP
0x209dbd8 8bec             MOV EBP, ESP
0x209dbda 833d5c00100200   CMP DWORD [0x210005c], 0x0
0x209dbe1 56               PUSH ESI
0x209dbe2 8b7508           MOV ESI, [EBP+0x8]
0x209dbe5 57               PUSH EDI
0x209dbe6 7412             JZ 0x209dbfa
0x209dbe8 8b4604           MOV EAX, [ESI+0x4]
0x209dbeb 83f812           CMP EAX, 0x12
0x209dbee 74               DB 0x74

************************************************************************
Hook mode: Usermode
Hook type: Inline/Trampoline
Process: 1888 (VMwareUser.exe)
Victim module: SHLWAPI.dll (0x77f60000 - 0x77fd6000)
Function: SHLWAPI.dll!<unknown> at 0x77f80cc7
Hook address: 0x209dbd7
Hooking module: <unknown>

Disassembly(0):
0x77f80cc7 833d84d2fc7700   CMP DWORD [0x77fcd284], 0x0
0x77f80cce 0f84c7f30000     JZ 0x77f9009b
0x77f80cd4 ff252415f677     JMP DWORD [0x77f61524]
0x77f80cda 90               NOP
0x77f80cdb 90               NOP
0x77f80cdc 90               NOP
0x77f80cdd 90               NOP
0x77f80cde 90               NOP

Disassembly(1):
0x209dbd7 55               PUSH EBP
0x209dbd8 8bec             MOV EBP, ESP
0x209dbda 833d5c00100200   CMP DWORD [0x210005c], 0x0
0x209dbe1 56               PUSH ESI
0x209dbe2 8b7508           MOV ESI, [EBP+0x8]
0x209dbe5 57               PUSH EDI
0x209dbe6 7412             JZ 0x209dbfa
0x209dbe8 8b4604           MOV EAX, [ESI+0x4]
0x209dbeb 83f812           CMP EAX, 0x12
0x209dbee 74               DB 0x74

************************************************************************
Hook mode: Usermode
Hook type: Import Address Table (IAT)
Process: 1888 (VMwareUser.exe)
Victim module: ole32.dll (0x774e0000 - 0x7761e000)
Function: kernel32.dll!CreateProcessW
Hook address: 0x208e325
Hooking module: <unknown>

Disassembly(0):
0x208e325 55               PUSH EBP
0x208e326 8bec             MOV EBP, ESP
0x208e328 8b451c           MOV EAX, [EBP+0x1c]
0x208e32b 56               PUSH ESI
0x208e32c 8b752c           MOV ESI, [EBP+0x2c]
0x208e32f 57               PUSH EDI
0x208e330 56               PUSH ESI
0x208e331 ff7528           PUSH DWORD [EBP+0x28]
0x208e334 83c804           OR EAX, 0x4
0x208e337 ff7524           PUSH DWORD [EBP+0x24]
0x208e33a ff7520           PUSH DWORD [EBP+0x20]

************************************************************************
Hook mode: Usermode
Hook type: Import Address Table (IAT)
Process: 1888 (VMwareUser.exe)
Victim module: ole32.dll (0x774e0000 - 0x7761e000)
Function: user32.dll!GetMessageW
Hook address: 0x209dbd7
Hooking module: <unknown>

Disassembly(0):
0x209dbd7 55               PUSH EBP
0x209dbd8 8bec             MOV EBP, ESP
0x209dbda 833d5c00100200   CMP DWORD [0x210005c], 0x0
0x209dbe1 56               PUSH ESI
0x209dbe2 8b7508           MOV ESI, [EBP+0x8]
0x209dbe5 57               PUSH EDI
0x209dbe6 7412             JZ 0x209dbfa
0x209dbe8 8b4604           MOV EAX, [ESI+0x4]
0x209dbeb 83f812           CMP EAX, 0x12
0x209dbee 74               DB 0x74

************************************************************************
Hook mode: Usermode
Hook type: Import Address Table (IAT)
Process: 1888 (VMwareUser.exe)
Victim module: USERENV.dll (0x769c0000 - 0x76a74000)
Function: kernel32.dll!CreateProcessW
Hook address: 0x208e325
Hooking module: <unknown>

Disassembly(0):
0x208e325 55               PUSH EBP
0x208e326 8bec             MOV EBP, ESP
0x208e328 8b451c           MOV EAX, [EBP+0x1c]
0x208e32b 56               PUSH ESI
0x208e32c 8b752c           MOV ESI, [EBP+0x2c]
0x208e32f 57               PUSH EDI
0x208e330 56               PUSH ESI
0x208e331 ff7528           PUSH DWORD [EBP+0x28]
0x208e334 83c804           OR EAX, 0x4
0x208e337 ff7524           PUSH DWORD [EBP+0x24]
0x208e33a ff7520           PUSH DWORD [EBP+0x20]

************************************************************************
Hook mode: Usermode
Hook type: Import Address Table (IAT)
Process: 1888 (VMwareUser.exe)
Victim module: MSVCR80.dll (0x78130000 - 0x781cb000)
Function: kernel32.dll!CreateProcessA
Hook address: 0x208e2e0
Hooking module: <unknown>

Disassembly(0):
0x208e2e0 55               PUSH EBP
0x208e2e1 8bec             MOV EBP, ESP
0x208e2e3 8b451c           MOV EAX, [EBP+0x1c]
0x208e2e6 56               PUSH ESI
0x208e2e7 8b752c           MOV ESI, [EBP+0x2c]
0x208e2ea 57               PUSH EDI
0x208e2eb 56               PUSH ESI
0x208e2ec ff7528           PUSH DWORD [EBP+0x28]
0x208e2ef 83c804           OR EAX, 0x4
0x208e2f2 ff7524           PUSH DWORD [EBP+0x24]
0x208e2f5 ff7520           PUSH DWORD [EBP+0x20]

************************************************************************
Hook mode: Usermode
Hook type: Import Address Table (IAT)
Process: 1888 (VMwareUser.exe)
Victim module: MSVCR80.dll (0x78130000 - 0x781cb000)
Function: kernel32.dll!CreateProcessW
Hook address: 0x208e325
Hooking module: <unknown>

Disassembly(0):
0x208e325 55               PUSH EBP
0x208e326 8bec             MOV EBP, ESP
0x208e328 8b451c           MOV EAX, [EBP+0x1c]
0x208e32b 56               PUSH ESI
0x208e32c 8b752c           MOV ESI, [EBP+0x2c]
0x208e32f 57               PUSH EDI
0x208e330 56               PUSH ESI
0x208e331 ff7528           PUSH DWORD [EBP+0x28]
0x208e334 83c804           OR EAX, 0x4
0x208e337 ff7524           PUSH DWORD [EBP+0x24]
0x208e33a ff7520           PUSH DWORD [EBP+0x20]

************************************************************************
Hook mode: Usermode
Hook type: Import Address Table (IAT)
Process: 1888 (VMwareUser.exe)
Victim module: WS2HELP.dll (0x71aa0000 - 0x71aa8000)
Function: ntdll.dll!NtQueryDirectoryFile
Hook address: 0x208e6b0
Hooking module: <unknown>

Disassembly(0):
0x208e6b0 b889ce0c02       MOV EAX, 0x20cce89
0x208e6b5 e8426b0300       CALL 0x20c51fc
0x208e6ba 51               PUSH ECX
0x208e6bb b868110000       MOV EAX, 0x1168
0x208e6c0 e81bdf0200       CALL 0x20bc5e0
0x208e6c5 53               PUSH EBX
0x208e6c6 56               PUSH ESI
0x208e6c7 57               PUSH EDI

************************************************************************
Hook mode: Usermode
Hook type: Import Address Table (IAT)
Process: 1888 (VMwareUser.exe)
Victim module: MFC80U.DLL (0x782e0000 - 0x783ef000)
Function: user32.dll!GetMessageW
Hook address: 0x209dbd7
Hooking module: <unknown>

Disassembly(0):
0x209dbd7 55               PUSH EBP
0x209dbd8 8bec             MOV EBP, ESP
0x209dbda 833d5c00100200   CMP DWORD [0x210005c], 0x0
0x209dbe1 56               PUSH ESI
0x209dbe2 8b7508           MOV ESI, [EBP+0x8]
0x209dbe5 57               PUSH EDI
0x209dbe6 7412             JZ 0x209dbfa
0x209dbe8 8b4604           MOV EAX, [ESI+0x4]
0x209dbeb 83f812           CMP EAX, 0x12
0x209dbee 74               DB 0x74

************************************************************************
Hook mode: Usermode
Hook type: Import Address Table (IAT)
Process: 1888 (VMwareUser.exe)
Victim module: OLEAUT32.dll (0x77120000 - 0x771ab000)
Function: user32.dll!GetMessageW
Hook address: 0x209dbd7
Hooking module: <unknown>

Disassembly(0):
0x209dbd7 55               PUSH EBP
0x209dbd8 8bec             MOV EBP, ESP
0x209dbda 833d5c00100200   CMP DWORD [0x210005c], 0x0
0x209dbe1 56               PUSH ESI
0x209dbe2 8b7508           MOV ESI, [EBP+0x8]
0x209dbe5 57               PUSH EDI
0x209dbe6 7412             JZ 0x209dbfa
0x209dbe8 8b4604           MOV EAX, [ESI+0x4]
0x209dbeb 83f812           CMP EAX, 0x12
0x209dbee 74               DB 0x74

************************************************************************
Hook mode: Usermode
Hook type: Import Address Table (IAT)
Process: 1888 (VMwareUser.exe)
Victim module: comctl32.dll (0x5d090000 - 0x5d12a000)
Function: user32.dll!GetMessageW
Hook address: 0x209dbd7
Hooking module: <unknown>

Disassembly(0):
0x209dbd7 55               PUSH EBP
0x209dbd8 8bec             MOV EBP, ESP
0x209dbda 833d5c00100200   CMP DWORD [0x210005c], 0x0
0x209dbe1 56               PUSH ESI
0x209dbe2 8b7508           MOV ESI, [EBP+0x8]
0x209dbe5 57               PUSH EDI
0x209dbe6 7412             JZ 0x209dbfa
0x209dbe8 8b4604           MOV EAX, [ESI+0x4]
0x209dbeb 83f812           CMP EAX, 0x12
0x209dbee 74               DB 0x74

************************************************************************
Hook mode: Usermode
Hook type: Import Address Table (IAT)
Process: 1888 (VMwareUser.exe)
Victim module: MSCTF.dll (0x74720000 - 0x7476c000)
Function: kernel32.dll!CreateProcessA
Hook address: 0x208e2e0
Hooking module: <unknown>

Disassembly(0):
0x208e2e0 55               PUSH EBP
0x208e2e1 8bec             MOV EBP, ESP
0x208e2e3 8b451c           MOV EAX, [EBP+0x1c]
0x208e2e6 56               PUSH ESI
0x208e2e7 8b752c           MOV ESI, [EBP+0x2c]
0x208e2ea 57               PUSH EDI
0x208e2eb 56               PUSH ESI
0x208e2ec ff7528           PUSH DWORD [EBP+0x28]
0x208e2ef 83c804           OR EAX, 0x4
0x208e2f2 ff7524           PUSH DWORD [EBP+0x24]
0x208e2f5 ff7520           PUSH DWORD [EBP+0x20]

************************************************************************
Hook mode: Usermode
Hook type: Import Address Table (IAT)
Process: 1888 (VMwareUser.exe)
Victim module: MSCTF.dll (0x74720000 - 0x7476c000)
Function: user32.dll!GetMessageW
Hook address: 0x209dbd7
Hooking module: <unknown>

Disassembly(0):
0x209dbd7 55               PUSH EBP
0x209dbd8 8bec             MOV EBP, ESP
0x209dbda 833d5c00100200   CMP DWORD [0x210005c], 0x0
0x209dbe1 56               PUSH ESI
0x209dbe2 8b7508           MOV ESI, [EBP+0x8]
0x209dbe5 57               PUSH EDI
0x209dbe6 7412             JZ 0x209dbfa
0x209dbe8 8b4604           MOV EAX, [ESI+0x4]
0x209dbeb 83f812           CMP EAX, 0x12
0x209dbee 74               DB 0x74

************************************************************************
Hook mode: Usermode
Hook type: Import Address Table (IAT)
Process: 1888 (VMwareUser.exe)
Victim module: SETUPAPI.dll (0x77920000 - 0x77a13000)
Function: kernel32.dll!CreateProcessW
Hook address: 0x208e325
Hooking module: <unknown>

Disassembly(0):
0x208e325 55               PUSH EBP
0x208e326 8bec             MOV EBP, ESP
0x208e328 8b451c           MOV EAX, [EBP+0x1c]
0x208e32b 56               PUSH ESI
0x208e32c 8b752c           MOV ESI, [EBP+0x2c]
0x208e32f 57               PUSH EDI
0x208e330 56               PUSH ESI
0x208e331 ff7528           PUSH DWORD [EBP+0x28]
0x208e334 83c804           OR EAX, 0x4
0x208e337 ff7524           PUSH DWORD [EBP+0x24]
0x208e33a ff7520           PUSH DWORD [EBP+0x20]

************************************************************************
Hook mode: Usermode
Hook type: Import Address Table (IAT)
Process: 1888 (VMwareUser.exe)
Victim module: SETUPAPI.dll (0x77920000 - 0x77a13000)
Function: user32.dll!ExitWindowsEx
Hook address: 0x209db80
Hooking module: <unknown>

Disassembly(0):
0x209db80 55               PUSH EBP
0x209db81 8bec             MOV EBP, ESP
0x209db83 51               PUSH ECX
0x209db84 56               PUSH ESI
0x209db85 ff152c140d02     CALL DWORD [0x20d142c]
0x209db8b 2b0518001002     SUB EAX, [0x2100018]
0x209db91 3dc0d40100       CMP EAX, 0x1d4c0
0x209db96 762d             JBE 0x209dbc5

************************************************************************
Hook mode: Usermode
Hook type: Import Address Table (IAT)
Process: 1888 (VMwareUser.exe)
Victim module: CLBCATQ.DLL (0x76fd0000 - 0x7704f000)
Function: kernel32.dll!CreateProcessW
Hook address: 0x208e325
Hooking module: <unknown>

Disassembly(0):
0x208e325 55               PUSH EBP
0x208e326 8bec             MOV EBP, ESP
0x208e328 8b451c           MOV EAX, [EBP+0x1c]
0x208e32b 56               PUSH ESI
0x208e32c 8b752c           MOV ESI, [EBP+0x2c]
0x208e32f 57               PUSH EDI
0x208e330 56               PUSH ESI
0x208e331 ff7528           PUSH DWORD [EBP+0x28]
0x208e334 83c804           OR EAX, 0x4
0x208e337 ff7524           PUSH DWORD [EBP+0x24]
0x208e33a ff7520           PUSH DWORD [EBP+0x20]

************************************************************************
Hook mode: Usermode
Hook type: Import Address Table (IAT)
Process: 1888 (VMwareUser.exe)
Victim module: appHelp.dll (0x77b40000 - 0x77b62000)
Function: ntdll.dll!NtQueryDirectoryFile
Hook address: 0x208e6b0
Hooking module: <unknown>

Disassembly(0):
0x208e6b0 b889ce0c02       MOV EAX, 0x20cce89
0x208e6b5 e8426b0300       CALL 0x20c51fc
0x208e6ba 51               PUSH ECX
0x208e6bb b868110000       MOV EAX, 0x1168
0x208e6c0 e81bdf0200       CALL 0x20bc5e0
0x208e6c5 53               PUSH EBX
0x208e6c6 56               PUSH ESI
0x208e6c7 57               PUSH EDI

************************************************************************
Hook mode: Usermode
Hook type: Import Address Table (IAT)
Process: 1888 (VMwareUser.exe)
Victim module: appHelp.dll (0x77b40000 - 0x77b62000)
Function: ntdll.dll!NtEnumerateValueKey
Hook address: 0x208ec38
Hooking module: <unknown>

Disassembly(0):
0x208ec38 55               PUSH EBP
0x208ec39 8bec             MOV EBP, ESP
0x208ec3b 83ec18           SUB ESP, 0x18
0x208ec3e 837d0c00         CMP DWORD [EBP+0xc], 0x0
0x208ec42 7507             JNZ 0x208ec4b
0x208ec44 83254cff0f0200   AND DWORD [0x20fff4c], 0x0
0x208ec4b 53               PUSH EBX
0x208ec4c 8b5d14           MOV EBX, [EBP+0x14]
0x208ec4f 56               PUSH ESI

************************************************************************
Hook mode: Usermode
Hook type: Import Address Table (IAT)
Process: 1888 (VMwareUser.exe)
Victim module: appHelp.dll (0x77b40000 - 0x77b62000)
Function: kernel32.dll!CreateProcessW
Hook address: 0x208e325
Hooking module: <unknown>

Disassembly(0):
0x208e325 55               PUSH EBP
0x208e326 8bec             MOV EBP, ESP
0x208e328 8b451c           MOV EAX, [EBP+0x1c]
0x208e32b 56               PUSH ESI
0x208e32c 8b752c           MOV ESI, [EBP+0x2c]
0x208e32f 57               PUSH EDI
0x208e330 56               PUSH ESI
0x208e331 ff7528           PUSH DWORD [EBP+0x28]
0x208e334 83c804           OR EAX, 0x4
0x208e337 ff7524           PUSH DWORD [EBP+0x24]
0x208e33a ff7520           PUSH DWORD [EBP+0x20]

************************************************************************
Hook mode: Usermode
Hook type: Import Address Table (IAT)
Process: 1888 (VMwareUser.exe)
Victim module: iertutil.dll (0x3dfd0000 - 0x3e015000)
Function: user32.dll!GetMessageW
Hook address: 0x209dbd7
Hooking module: <unknown>

Disassembly(0):
0x209dbd7 55               PUSH EBP
0x209dbd8 8bec             MOV EBP, ESP
0x209dbda 833d5c00100200   CMP DWORD [0x210005c], 0x0
0x209dbe1 56               PUSH ESI
0x209dbe2 8b7508           MOV ESI, [EBP+0x8]
0x209dbe5 57               PUSH EDI
0x209dbe6 7412             JZ 0x209dbfa
0x209dbe8 8b4604           MOV EAX, [ESI+0x4]
0x209dbeb 83f812           CMP EAX, 0x12
0x209dbee 74               DB 0x74

************************************************************************
Hook mode: Usermode
Hook type: Import Address Table (IAT)
Process: 1888 (VMwareUser.exe)
Victim module: ieframe.dll (0x3e1c0000 - 0x3e78f000)
Function: kernel32.dll!CreateProcessW
Hook address: 0x208e325
Hooking module: <unknown>

Disassembly(0):
0x208e325 55               PUSH EBP
0x208e326 8bec             MOV EBP, ESP
0x208e328 8b451c           MOV EAX, [EBP+0x1c]
0x208e32b 56               PUSH ESI
0x208e32c 8b752c           MOV ESI, [EBP+0x2c]
0x208e32f 57               PUSH EDI
0x208e330 56               PUSH ESI
0x208e331 ff7528           PUSH DWORD [EBP+0x28]
0x208e334 83c804           OR EAX, 0x4
0x208e337 ff7524           PUSH DWORD [EBP+0x24]
0x208e33a ff7520           PUSH DWORD [EBP+0x20]

************************************************************************
Hook mode: Usermode
Hook type: Import Address Table (IAT)
Process: 1888 (VMwareUser.exe)
Victim module: ieframe.dll (0x3e1c0000 - 0x3e78f000)
Function: user32.dll!GetMessageW
Hook address: 0x209dbd7
Hooking module: <unknown>

Disassembly(0):
0x209dbd7 55               PUSH EBP
0x209dbd8 8bec             MOV EBP, ESP
0x209dbda 833d5c00100200   CMP DWORD [0x210005c], 0x0
0x209dbe1 56               PUSH ESI
0x209dbe2 8b7508           MOV ESI, [EBP+0x8]
0x209dbe5 57               PUSH EDI
0x209dbe6 7412             JZ 0x209dbfa
0x209dbe8 8b4604           MOV EAX, [ESI+0x4]
0x209dbeb 83f812           CMP EAX, 0x12
0x209dbee 74               DB 0x74

************************************************************************
Hook mode: Usermode
Hook type: Import Address Table (IAT)
Process: 1888 (VMwareUser.exe)
Victim module: UxTheme.dll (0x5ad70000 - 0x5ada8000)
Function: user32.dll!GetMessageW
Hook address: 0x209dbd7
Hooking module: <unknown>

Disassembly(0):
0x209dbd7 55               PUSH EBP
0x209dbd8 8bec             MOV EBP, ESP
0x209dbda 833d5c00100200   CMP DWORD [0x210005c], 0x0
0x209dbe1 56               PUSH ESI
0x209dbe2 8b7508           MOV ESI, [EBP+0x8]
0x209dbe5 57               PUSH EDI
0x209dbe6 7412             JZ 0x209dbfa
0x209dbe8 8b4604           MOV EAX, [ESI+0x4]
0x209dbeb 83f812           CMP EAX, 0x12
0x209dbee 74               DB 0x74

************************************************************************
Hook mode: Usermode
Hook type: Import Address Table (IAT)
Process: 1888 (VMwareUser.exe)
Victim module: NTMARTA.DLL (0x77690000 - 0x776b1000)
Function: ntdll.dll!NtQueryDirectoryFile
Hook address: 0x208e6b0
Hooking module: <unknown>

Disassembly(0):
0x208e6b0 b889ce0c02       MOV EAX, 0x20cce89
0x208e6b5 e8426b0300       CALL 0x20c51fc
0x208e6ba 51               PUSH ECX
0x208e6bb b868110000       MOV EAX, 0x1168
0x208e6c0 e81bdf0200       CALL 0x20bc5e0
0x208e6c5 53               PUSH EBX
0x208e6c6 56               PUSH ESI
0x208e6c7 57               PUSH EDI

************************************************************************
Hook mode: Usermode
Hook type: Import Address Table (IAT)
Process: 1888 (VMwareUser.exe)
Victim module: urlmon.dll (0x1a70000 - 0x1b98000)
Function: kernel32.dll!CreateProcessA
Hook address: 0x208e2e0
Hooking module: <unknown>

Disassembly(0):
0x208e2e0 55               PUSH EBP
0x208e2e1 8bec             MOV EBP, ESP
0x208e2e3 8b451c           MOV EAX, [EBP+0x1c]
0x208e2e6 56               PUSH ESI
0x208e2e7 8b752c           MOV ESI, [EBP+0x2c]
0x208e2ea 57               PUSH EDI
0x208e2eb 56               PUSH ESI
0x208e2ec ff7528           PUSH DWORD [EBP+0x28]
0x208e2ef 83c804           OR EAX, 0x4
0x208e2f2 ff7524           PUSH DWORD [EBP+0x24]
0x208e2f5 ff7520           PUSH DWORD [EBP+0x20]

************************************************************************
Hook mode: Usermode
Hook type: Import Address Table (IAT)
Process: 1888 (VMwareUser.exe)
Victim module: urlmon.dll (0x1a70000 - 0x1b98000)
Function: kernel32.dll!CreateProcessW
Hook address: 0x208e325
Hooking module: <unknown>

Disassembly(0):
0x208e325 55               PUSH EBP
0x208e326 8bec             MOV EBP, ESP
0x208e328 8b451c           MOV EAX, [EBP+0x1c]
0x208e32b 56               PUSH ESI
0x208e32c 8b752c           MOV ESI, [EBP+0x2c]
0x208e32f 57               PUSH EDI
0x208e330 56               PUSH ESI
0x208e331 ff7528           PUSH DWORD [EBP+0x28]
0x208e334 83c804           OR EAX, 0x4
0x208e337 ff7524           PUSH DWORD [EBP+0x24]
0x208e33a ff7520           PUSH DWORD [EBP+0x20]

************************************************************************
Hook mode: Usermode
Hook type: Import Address Table (IAT)
Process: 1900 (msseces.exe)
Victim module: msseces.exe (0x1000000 - 0x110b000)
Function: kernel32.dll!CreateProcessW
Hook address: 0x1001e325
Hooking module: <unknown>

Disassembly(0):
0x1001e325 55               PUSH EBP
0x1001e326 8bec             MOV EBP, ESP
0x1001e328 8b451c           MOV EAX, [EBP+0x1c]
0x1001e32b 56               PUSH ESI
0x1001e32c 8b752c           MOV ESI, [EBP+0x2c]
0x1001e32f 57               PUSH EDI
0x1001e330 56               PUSH ESI
0x1001e331 ff7528           PUSH DWORD [EBP+0x28]
0x1001e334 83c804           OR EAX, 0x4
0x1001e337 ff7524           PUSH DWORD [EBP+0x24]
0x1001e33a ff7520           PUSH DWORD [EBP+0x20]

************************************************************************
Hook mode: Usermode
Hook type: Import Address Table (IAT)
Process: 1900 (msseces.exe)
Victim module: msseces.exe (0x1000000 - 0x110b000)
Function: advapi32.dll!InitiateSystemShutdownExW
Hook address: 0x1001d1dd
Hooking module: <unknown>

Disassembly(0):
0x1001d1dd 55               PUSH EBP
0x1001d1de 8bec             MOV EBP, ESP
0x1001d1e0 51               PUSH ECX
0x1001d1e1 56               PUSH ESI
0x1001d1e2 ff356c000910     PUSH DWORD [0x1009006c]
0x1001d1e8 8b3520110610     MOV ESI, [0x10061120]
0x1001d1ee c6056900091001   MOV BYTE [0x10090069], 0x1

************************************************************************
Hook mode: Usermode
Hook type: Import Address Table (IAT)
Process: 1900 (msseces.exe)
Victim module: msseces.exe (0x1000000 - 0x110b000)
Function: user32.dll!GetMessageW
Hook address: 0x1002dbd7
Hooking module: <unknown>

Disassembly(0):
0x1002dbd7 55               PUSH EBP
0x1002dbd8 8bec             MOV EBP, ESP
0x1002dbda 833d5c00091000   CMP DWORD [0x1009005c], 0x0
0x1002dbe1 56               PUSH ESI
0x1002dbe2 8b7508           MOV ESI, [EBP+0x8]
0x1002dbe5 57               PUSH EDI
0x1002dbe6 7412             JZ 0x1002dbfa
0x1002dbe8 8b4604           MOV EAX, [ESI+0x4]
0x1002dbeb 83f812           CMP EAX, 0x12
0x1002dbee 74               DB 0x74

************************************************************************
Hook mode: Usermode
Hook type: Import Address Table (IAT)
Process: 1900 (msseces.exe)
Victim module: msseces.exe (0x1000000 - 0x110b000)
Function: user32.dll!ExitWindowsEx
Hook address: 0x1002db80
Hooking module: <unknown>

Disassembly(0):
0x1002db80 55               PUSH EBP
0x1002db81 8bec             MOV EBP, ESP
0x1002db83 51               PUSH ECX
0x1002db84 56               PUSH ESI
0x1002db85 ff152c140610     CALL DWORD [0x1006142c]
0x1002db8b 2b0518000910     SUB EAX, [0x10090018]
0x1002db91 3dc0d40100       CMP EAX, 0x1d4c0
0x1002db96 762d             JBE 0x1002dbc5

************************************************************************
Hook mode: Usermode
Hook type: Import Address Table (IAT)
Process: 1900 (msseces.exe)
Victim module: kernel32.dll (0x7c800000 - 0x7c8f6000)
Function: ntdll.dll!NtEnumerateValueKey
Hook address: 0x1001ec38
Hooking module: <unknown>

Disassembly(0):
0x1001ec38 55               PUSH EBP
0x1001ec39 8bec             MOV EBP, ESP
0x1001ec3b 83ec18           SUB ESP, 0x18
0x1001ec3e 837d0c00         CMP DWORD [EBP+0xc], 0x0
0x1001ec42 7507             JNZ 0x1001ec4b
0x1001ec44 83254cff081000   AND DWORD [0x1008ff4c], 0x0
0x1001ec4b 53               PUSH EBX
0x1001ec4c 8b5d14           MOV EBX, [EBP+0x14]
0x1001ec4f 56               PUSH ESI

************************************************************************
Hook mode: Usermode
Hook type: Import Address Table (IAT)
Process: 1900 (msseces.exe)
Victim module: kernel32.dll (0x7c800000 - 0x7c8f6000)
Function: ntdll.dll!NtQueryDirectoryFile
Hook address: 0x1001e6b0
Hooking module: <unknown>

Disassembly(0):
0x1001e6b0 b889ce0510       MOV EAX, 0x1005ce89
0x1001e6b5 e8426b0300       CALL 0x100551fc
0x1001e6ba 51               PUSH ECX
0x1001e6bb b868110000       MOV EAX, 0x1168
0x1001e6c0 e81bdf0200       CALL 0x1004c5e0
0x1001e6c5 53               PUSH EBX
0x1001e6c6 56               PUSH ESI
0x1001e6c7 57               PUSH EDI

************************************************************************
Hook mode: Usermode
Hook type: Import Address Table (IAT)
Process: 1900 (msseces.exe)
Victim module: msvcrt.dll (0x77c10000 - 0x77c68000)
Function: kernel32.dll!CreateProcessA
Hook address: 0x1001e2e0
Hooking module: <unknown>

Disassembly(0):
0x1001e2e0 55               PUSH EBP
0x1001e2e1 8bec             MOV EBP, ESP
0x1001e2e3 8b451c           MOV EAX, [EBP+0x1c]
0x1001e2e6 56               PUSH ESI
0x1001e2e7 8b752c           MOV ESI, [EBP+0x2c]
0x1001e2ea 57               PUSH EDI
0x1001e2eb 56               PUSH ESI
0x1001e2ec ff7528           PUSH DWORD [EBP+0x28]
0x1001e2ef 83c804           OR EAX, 0x4
0x1001e2f2 ff7524           PUSH DWORD [EBP+0x24]
0x1001e2f5 ff7520           PUSH DWORD [EBP+0x20]

************************************************************************
Hook mode: Usermode
Hook type: Import Address Table (IAT)
Process: 1900 (msseces.exe)
Victim module: msvcrt.dll (0x77c10000 - 0x77c68000)
Function: kernel32.dll!CreateProcessW
Hook address: 0x1001e325
Hooking module: <unknown>

Disassembly(0):
0x1001e325 55               PUSH EBP
0x1001e326 8bec             MOV EBP, ESP
0x1001e328 8b451c           MOV EAX, [EBP+0x1c]
0x1001e32b 56               PUSH ESI
0x1001e32c 8b752c           MOV ESI, [EBP+0x2c]
0x1001e32f 57               PUSH EDI
0x1001e330 56               PUSH ESI
0x1001e331 ff7528           PUSH DWORD [EBP+0x28]
0x1001e334 83c804           OR EAX, 0x4
0x1001e337 ff7524           PUSH DWORD [EBP+0x24]
0x1001e33a ff7520           PUSH DWORD [EBP+0x20]

************************************************************************
Hook mode: Usermode
Hook type: Import Address Table (IAT)
Process: 1900 (msseces.exe)
Victim module: ADVAPI32.dll (0x77dd0000 - 0x77e6b000)
Function: ntdll.dll!NtEnumerateValueKey
Hook address: 0x1001ec38
Hooking module: <unknown>

Disassembly(0):
0x1001ec38 55               PUSH EBP
0x1001ec39 8bec             MOV EBP, ESP
0x1001ec3b 83ec18           SUB ESP, 0x18
0x1001ec3e 837d0c00         CMP DWORD [EBP+0xc], 0x0
0x1001ec42 7507             JNZ 0x1001ec4b
0x1001ec44 83254cff081000   AND DWORD [0x1008ff4c], 0x0
0x1001ec4b 53               PUSH EBX
0x1001ec4c 8b5d14           MOV EBX, [EBP+0x14]
0x1001ec4f 56               PUSH ESI

************************************************************************
Hook mode: Usermode
Hook type: Import Address Table (IAT)
Process: 1900 (msseces.exe)
Victim module: USER32.dll (0x7e410000 - 0x7e4a1000)
Function: ntdll.dll!NtEnumerateValueKey
Hook address: 0x1001ec38
Hooking module: <unknown>

Disassembly(0):
0x1001ec38 55               PUSH EBP
0x1001ec39 8bec             MOV EBP, ESP
0x1001ec3b 83ec18           SUB ESP, 0x18
0x1001ec3e 837d0c00         CMP DWORD [EBP+0xc], 0x0
0x1001ec42 7507             JNZ 0x1001ec4b
0x1001ec44 83254cff081000   AND DWORD [0x1008ff4c], 0x0
0x1001ec4b 53               PUSH EBX
0x1001ec4c 8b5d14           MOV EBX, [EBP+0x14]
0x1001ec4f 56               PUSH ESI

************************************************************************
Hook mode: Usermode
Hook type: Import Address Table (IAT)
Process: 1900 (msseces.exe)
Victim module: USER32.dll (0x7e410000 - 0x7e4a1000)
Function: kernel32.dll!CreateProcessW
Hook address: 0x1001e325
Hooking module: <unknown>

Disassembly(0):
0x1001e325 55               PUSH EBP
0x1001e326 8bec             MOV EBP, ESP
0x1001e328 8b451c           MOV EAX, [EBP+0x1c]
0x1001e32b 56               PUSH ESI
0x1001e32c 8b752c           MOV ESI, [EBP+0x2c]
0x1001e32f 57               PUSH EDI
0x1001e330 56               PUSH ESI
0x1001e331 ff7528           PUSH DWORD [EBP+0x28]
0x1001e334 83c804           OR EAX, 0x4
0x1001e337 ff7524           PUSH DWORD [EBP+0x24]
0x1001e33a ff7520           PUSH DWORD [EBP+0x20]

************************************************************************
Hook mode: Usermode
Hook type: Import Address Table (IAT)
Process: 1900 (msseces.exe)
Victim module: SHLWAPI.dll (0x77f60000 - 0x77fd6000)
Function: kernel32.dll!CreateProcessA
Hook address: 0x1001e2e0
Hooking module: <unknown>

Disassembly(0):
0x1001e2e0 55               PUSH EBP
0x1001e2e1 8bec             MOV EBP, ESP
0x1001e2e3 8b451c           MOV EAX, [EBP+0x1c]
0x1001e2e6 56               PUSH ESI
0x1001e2e7 8b752c           MOV ESI, [EBP+0x2c]
0x1001e2ea 57               PUSH EDI
0x1001e2eb 56               PUSH ESI
0x1001e2ec ff7528           PUSH DWORD [EBP+0x28]
0x1001e2ef 83c804           OR EAX, 0x4
0x1001e2f2 ff7524           PUSH DWORD [EBP+0x24]
0x1001e2f5 ff7520           PUSH DWORD [EBP+0x20]

************************************************************************
Hook mode: Usermode
Hook type: Import Address Table (IAT)
Process: 1900 (msseces.exe)
Victim module: SHLWAPI.dll (0x77f60000 - 0x77fd6000)
Function: kernel32.dll!CreateProcessW
Hook address: 0x1001e325
Hooking module: <unknown>

Disassembly(0):
0x1001e325 55               PUSH EBP
0x1001e326 8bec             MOV EBP, ESP
0x1001e328 8b451c           MOV EAX, [EBP+0x1c]
0x1001e32b 56               PUSH ESI
0x1001e32c 8b752c           MOV ESI, [EBP+0x2c]
0x1001e32f 57               PUSH EDI
0x1001e330 56               PUSH ESI
0x1001e331 ff7528           PUSH DWORD [EBP+0x28]
0x1001e334 83c804           OR EAX, 0x4
0x1001e337 ff7524           PUSH DWORD [EBP+0x24]
0x1001e33a ff7520           PUSH DWORD [EBP+0x20]

************************************************************************
Hook mode: Usermode
Hook type: Import Address Table (IAT)
Process: 1900 (msseces.exe)
Victim module: SHLWAPI.dll (0x77f60000 - 0x77fd6000)
Function: user32.dll!GetMessageW
Hook address: 0x1002dbd7
Hooking module: <unknown>

Disassembly(0):
0x1002dbd7 55               PUSH EBP
0x1002dbd8 8bec             MOV EBP, ESP
0x1002dbda 833d5c00091000   CMP DWORD [0x1009005c], 0x0
0x1002dbe1 56               PUSH ESI
0x1002dbe2 8b7508           MOV ESI, [EBP+0x8]
0x1002dbe5 57               PUSH EDI
0x1002dbe6 7412             JZ 0x1002dbfa
0x1002dbe8 8b4604           MOV EAX, [ESI+0x4]
0x1002dbeb 83f812           CMP EAX, 0x12
0x1002dbee 74               DB 0x74

************************************************************************
Hook mode: Usermode
Hook type: Import Address Table (IAT)
Process: 1900 (msseces.exe)
Victim module: iertutil.dll (0x3dfd0000 - 0x3e015000)
Function: user32.dll!GetMessageW
Hook address: 0x1002dbd7
Hooking module: <unknown>

Disassembly(0):
0x1002dbd7 55               PUSH EBP
0x1002dbd8 8bec             MOV EBP, ESP
0x1002dbda 833d5c00091000   CMP DWORD [0x1009005c], 0x0
0x1002dbe1 56               PUSH ESI
0x1002dbe2 8b7508           MOV ESI, [EBP+0x8]
0x1002dbe5 57               PUSH EDI
0x1002dbe6 7412             JZ 0x1002dbfa
0x1002dbe8 8b4604           MOV EAX, [ESI+0x4]
0x1002dbeb 83f812           CMP EAX, 0x12
0x1002dbee 74               DB 0x74

************************************************************************
Hook mode: Usermode
Hook type: Import Address Table (IAT)
Process: 1900 (msseces.exe)
Victim module: SHELL32.dll (0x7c9c0000 - 0x7d1d7000)
Function: kernel32.dll!CreateProcessW
Hook address: 0x1001e325
Hooking module: <unknown>

Disassembly(0):
0x1001e325 55               PUSH EBP
0x1001e326 8bec             MOV EBP, ESP
0x1001e328 8b451c           MOV EAX, [EBP+0x1c]
0x1001e32b 56               PUSH ESI
0x1001e32c 8b752c           MOV ESI, [EBP+0x2c]
0x1001e32f 57               PUSH EDI
0x1001e330 56               PUSH ESI
0x1001e331 ff7528           PUSH DWORD [EBP+0x28]
0x1001e334 83c804           OR EAX, 0x4
0x1001e337 ff7524           PUSH DWORD [EBP+0x24]
0x1001e33a ff7520           PUSH DWORD [EBP+0x20]

************************************************************************
Hook mode: Usermode
Hook type: Import Address Table (IAT)
Process: 1900 (msseces.exe)
Victim module: SHELL32.dll (0x7c9c0000 - 0x7d1d7000)
Function: ntdll.dll!NtEnumerateValueKey
Hook address: 0x1001ec38
Hooking module: <unknown>

Disassembly(0):
0x1001ec38 55               PUSH EBP
0x1001ec39 8bec             MOV EBP, ESP
0x1001ec3b 83ec18           SUB ESP, 0x18
0x1001ec3e 837d0c00         CMP DWORD [EBP+0xc], 0x0
0x1001ec42 7507             JNZ 0x1001ec4b
0x1001ec44 83254cff081000   AND DWORD [0x1008ff4c], 0x0
0x1001ec4b 53               PUSH EBX
0x1001ec4c 8b5d14           MOV EBX, [EBP+0x14]
0x1001ec4f 56               PUSH ESI

************************************************************************
Hook mode: Usermode
Hook type: Import Address Table (IAT)
Process: 1900 (msseces.exe)
Victim module: SHELL32.dll (0x7c9c0000 - 0x7d1d7000)
Function: user32.dll!GetMessageW
Hook address: 0x1002dbd7
Hooking module: <unknown>

Disassembly(0):
0x1002dbd7 55               PUSH EBP
0x1002dbd8 8bec             MOV EBP, ESP
0x1002dbda 833d5c00091000   CMP DWORD [0x1009005c], 0x0
0x1002dbe1 56               PUSH ESI
0x1002dbe2 8b7508           MOV ESI, [EBP+0x8]
0x1002dbe5 57               PUSH EDI
0x1002dbe6 7412             JZ 0x1002dbfa
0x1002dbe8 8b4604           MOV EAX, [ESI+0x4]
0x1002dbeb 83f812           CMP EAX, 0x12
0x1002dbee 74               DB 0x74

************************************************************************
Hook mode: Usermode
Hook type: Import Address Table (IAT)
Process: 1900 (msseces.exe)
Victim module: SHELL32.dll (0x7c9c0000 - 0x7d1d7000)
Function: user32.dll!ExitWindowsEx
Hook address: 0x1002db80
Hooking module: <unknown>

Disassembly(0):
0x1002db80 55               PUSH EBP
0x1002db81 8bec             MOV EBP, ESP
0x1002db83 51               PUSH ECX
0x1002db84 56               PUSH ESI
0x1002db85 ff152c140610     CALL DWORD [0x1006142c]
0x1002db8b 2b0518000910     SUB EAX, [0x10090018]
0x1002db91 3dc0d40100       CMP EAX, 0x1d4c0
0x1002db96 762d             JBE 0x1002dbc5

************************************************************************
Hook mode: Usermode
Hook type: Import Address Table (IAT)
Process: 1900 (msseces.exe)
Victim module: ole32.dll (0x774e0000 - 0x7761e000)
Function: kernel32.dll!CreateProcessW
Hook address: 0x1001e325
Hooking module: <unknown>

Disassembly(0):
0x1001e325 55               PUSH EBP
0x1001e326 8bec             MOV EBP, ESP
0x1001e328 8b451c           MOV EAX, [EBP+0x1c]
0x1001e32b 56               PUSH ESI
0x1001e32c 8b752c           MOV ESI, [EBP+0x2c]
0x1001e32f 57               PUSH EDI
0x1001e330 56               PUSH ESI
0x1001e331 ff7528           PUSH DWORD [EBP+0x28]
0x1001e334 83c804           OR EAX, 0x4
0x1001e337 ff7524           PUSH DWORD [EBP+0x24]
0x1001e33a ff7520           PUSH DWORD [EBP+0x20]

************************************************************************
Hook mode: Usermode
Hook type: Import Address Table (IAT)
Process: 1900 (msseces.exe)
Victim module: ole32.dll (0x774e0000 - 0x7761e000)
Function: user32.dll!GetMessageW
Hook address: 0x1002dbd7
Hooking module: <unknown>

Disassembly(0):
0x1002dbd7 55               PUSH EBP
0x1002dbd8 8bec             MOV EBP, ESP
0x1002dbda 833d5c00091000   CMP DWORD [0x1009005c], 0x0
0x1002dbe1 56               PUSH ESI
0x1002dbe2 8b7508           MOV ESI, [EBP+0x8]
0x1002dbe5 57               PUSH EDI
0x1002dbe6 7412             JZ 0x1002dbfa
0x1002dbe8 8b4604           MOV EAX, [ESI+0x4]
0x1002dbeb 83f812           CMP EAX, 0x12
0x1002dbee 74               DB 0x74

************************************************************************
Hook mode: Usermode
Hook type: Import Address Table (IAT)
Process: 1900 (msseces.exe)
Victim module: OLEAUT32.dll (0x77120000 - 0x771ab000)
Function: user32.dll!GetMessageW
Hook address: 0x1002dbd7
Hooking module: <unknown>

Disassembly(0):
0x1002dbd7 55               PUSH EBP
0x1002dbd8 8bec             MOV EBP, ESP
0x1002dbda 833d5c00091000   CMP DWORD [0x1009005c], 0x0
0x1002dbe1 56               PUSH ESI
0x1002dbe2 8b7508           MOV ESI, [EBP+0x8]
0x1002dbe5 57               PUSH EDI
0x1002dbe6 7412             JZ 0x1002dbfa
0x1002dbe8 8b4604           MOV EAX, [ESI+0x4]
0x1002dbeb 83f812           CMP EAX, 0x12
0x1002dbee 74               DB 0x74

************************************************************************
Hook mode: Usermode
Hook type: Import Address Table (IAT)
Process: 1900 (msseces.exe)
Victim module: msi.dll (0x7d1e0000 - 0x7d49c000)
Function: kernel32.dll!CreateProcessW
Hook address: 0x1001e325
Hooking module: <unknown>

Disassembly(0):
0x1001e325 55               PUSH EBP
0x1001e326 8bec             MOV EBP, ESP
0x1001e328 8b451c           MOV EAX, [EBP+0x1c]
0x1001e32b 56               PUSH ESI
0x1001e32c 8b752c           MOV ESI, [EBP+0x2c]
0x1001e32f 57               PUSH EDI
0x1001e330 56               PUSH ESI
0x1001e331 ff7528           PUSH DWORD [EBP+0x28]
0x1001e334 83c804           OR EAX, 0x4
0x1001e337 ff7524           PUSH DWORD [EBP+0x24]
0x1001e33a ff7520           PUSH DWORD [EBP+0x20]

************************************************************************
Hook mode: Usermode
Hook type: Import Address Table (IAT)
Process: 1900 (msseces.exe)
Victim module: msi.dll (0x7d1e0000 - 0x7d49c000)
Function: user32.dll!ExitWindowsEx
Hook address: 0x1002db80
Hooking module: <unknown>

Disassembly(0):
0x1002db80 55               PUSH EBP
0x1002db81 8bec             MOV EBP, ESP
0x1002db83 51               PUSH ECX
0x1002db84 56               PUSH ESI
0x1002db85 ff152c140610     CALL DWORD [0x1006142c]
0x1002db8b 2b0518000910     SUB EAX, [0x10090018]
0x1002db91 3dc0d40100       CMP EAX, 0x1d4c0
0x1002db96 762d             JBE 0x1002dbc5

************************************************************************
Hook mode: Usermode
Hook type: Import Address Table (IAT)
Process: 1900 (msseces.exe)
Victim module: COMCTL32.dll (0x773d0000 - 0x774d3000)
Function: user32.dll!GetMessageW
Hook address: 0x1002dbd7
Hooking module: <unknown>

Disassembly(0):
0x1002dbd7 55               PUSH EBP
0x1002dbd8 8bec             MOV EBP, ESP
0x1002dbda 833d5c00091000   CMP DWORD [0x1009005c], 0x0
0x1002dbe1 56               PUSH ESI
0x1002dbe2 8b7508           MOV ESI, [EBP+0x8]
0x1002dbe5 57               PUSH EDI
0x1002dbe6 7412             JZ 0x1002dbfa
0x1002dbe8 8b4604           MOV EAX, [ESI+0x4]
0x1002dbeb 83f812           CMP EAX, 0x12
0x1002dbee 74               DB 0x74

************************************************************************
Hook mode: Usermode
Hook type: Import Address Table (IAT)
Process: 1900 (msseces.exe)
Victim module: userenv.dll (0x769c0000 - 0x76a74000)
Function: kernel32.dll!CreateProcessW
Hook address: 0x1001e325
Hooking module: <unknown>

Disassembly(0):
0x1001e325 55               PUSH EBP
0x1001e326 8bec             MOV EBP, ESP
0x1001e328 8b451c           MOV EAX, [EBP+0x1c]
0x1001e32b 56               PUSH ESI
0x1001e32c 8b752c           MOV ESI, [EBP+0x2c]
0x1001e32f 57               PUSH EDI
0x1001e330 56               PUSH ESI
0x1001e331 ff7528           PUSH DWORD [EBP+0x28]
0x1001e334 83c804           OR EAX, 0x4
0x1001e337 ff7524           PUSH DWORD [EBP+0x24]
0x1001e33a ff7520           PUSH DWORD [EBP+0x20]

************************************************************************
Hook mode: Usermode
Hook type: Import Address Table (IAT)
Process: 1900 (msseces.exe)
Victim module: MpClient.Dll (0xdc0000 - 0xe30000)
Function: kernel32.dll!CreateProcessW
Hook address: 0x1001e325
Hooking module: <unknown>

Disassembly(0):
0x1001e325 55               PUSH EBP
0x1001e326 8bec             MOV EBP, ESP
0x1001e328 8b451c           MOV EAX, [EBP+0x1c]
0x1001e32b 56               PUSH ESI
0x1001e32c 8b752c           MOV ESI, [EBP+0x2c]
0x1001e32f 57               PUSH EDI
0x1001e330 56               PUSH ESI
0x1001e331 ff7528           PUSH DWORD [EBP+0x28]
0x1001e334 83c804           OR EAX, 0x4
0x1001e337 ff7524           PUSH DWORD [EBP+0x24]
0x1001e33a ff7520           PUSH DWORD [EBP+0x20]

************************************************************************
Hook mode: Usermode
Hook type: Import Address Table (IAT)
Process: 1900 (msseces.exe)
Victim module: MSCTF.dll (0x74720000 - 0x7476c000)
Function: kernel32.dll!CreateProcessA
Hook address: 0x1001e2e0
Hooking module: <unknown>

Disassembly(0):
0x1001e2e0 55               PUSH EBP
0x1001e2e1 8bec             MOV EBP, ESP
0x1001e2e3 8b451c           MOV EAX, [EBP+0x1c]
0x1001e2e6 56               PUSH ESI
0x1001e2e7 8b752c           MOV ESI, [EBP+0x2c]
0x1001e2ea 57               PUSH EDI
0x1001e2eb 56               PUSH ESI
0x1001e2ec ff7528           PUSH DWORD [EBP+0x28]
0x1001e2ef 83c804           OR EAX, 0x4
0x1001e2f2 ff7524           PUSH DWORD [EBP+0x24]
0x1001e2f5 ff7520           PUSH DWORD [EBP+0x20]

************************************************************************
Hook mode: Usermode
Hook type: Import Address Table (IAT)
Process: 1900 (msseces.exe)
Victim module: MSCTF.dll (0x74720000 - 0x7476c000)
Function: user32.dll!GetMessageW
Hook address: 0x1002dbd7
Hooking module: <unknown>

Disassembly(0):
0x1002dbd7 55               PUSH EBP
0x1002dbd8 8bec             MOV EBP, ESP
0x1002dbda 833d5c00091000   CMP DWORD [0x1009005c], 0x0
0x1002dbe1 56               PUSH ESI
0x1002dbe2 8b7508           MOV ESI, [EBP+0x8]
0x1002dbe5 57               PUSH EDI
0x1002dbe6 7412             JZ 0x1002dbfa
0x1002dbe8 8b4604           MOV EAX, [ESI+0x4]
0x1002dbeb 83f812           CMP EAX, 0x12
0x1002dbee 74               DB 0x74

************************************************************************
Hook mode: Usermode
Hook type: Import Address Table (IAT)
Process: 1900 (msseces.exe)
Victim module: UxTheme.dll (0x5ad70000 - 0x5ada8000)
Function: user32.dll!GetMessageW
Hook address: 0x1002dbd7
Hooking module: <unknown>

Disassembly(0):
0x1002dbd7 55               PUSH EBP
0x1002dbd8 8bec             MOV EBP, ESP
0x1002dbda 833d5c00091000   CMP DWORD [0x1009005c], 0x0
0x1002dbe1 56               PUSH ESI
0x1002dbe2 8b7508           MOV ESI, [EBP+0x8]
0x1002dbe5 57               PUSH EDI
0x1002dbe6 7412             JZ 0x1002dbfa
0x1002dbe8 8b4604           MOV EAX, [ESI+0x4]
0x1002dbeb 83f812           CMP EAX, 0x12
0x1002dbee 74               DB 0x74

************************************************************************
Hook mode: Usermode
Hook type: Import Address Table (IAT)
Process: 1900 (msseces.exe)
Victim module: WS2HELP.dll (0x71aa0000 - 0x71aa8000)
Function: ntdll.dll!NtQueryDirectoryFile
Hook address: 0x1001e6b0
Hooking module: <unknown>

Disassembly(0):
0x1001e6b0 b889ce0510       MOV EAX, 0x1005ce89
0x1001e6b5 e8426b0300       CALL 0x100551fc
0x1001e6ba 51               PUSH ECX
0x1001e6bb b868110000       MOV EAX, 0x1168
0x1001e6c0 e81bdf0200       CALL 0x1004c5e0
0x1001e6c5 53               PUSH EBX
0x1001e6c6 56               PUSH ESI
0x1001e6c7 57               PUSH EDI

************************************************************************
Hook mode: Usermode
Hook type: Import Address Table (IAT)
Process: 1912 (ctfmon.exe)
Victim module: ctfmon.exe (0x400000 - 0x406000)
Function: kernel32.dll!CreateProcessA
Hook address: 0x1001e2e0
Hooking module: <unknown>

Disassembly(0):
0x1001e2e0 55               PUSH EBP
0x1001e2e1 8bec             MOV EBP, ESP
0x1001e2e3 8b451c           MOV EAX, [EBP+0x1c]
0x1001e2e6 56               PUSH ESI
0x1001e2e7 8b752c           MOV ESI, [EBP+0x2c]
0x1001e2ea 57               PUSH EDI
0x1001e2eb 56               PUSH ESI
0x1001e2ec ff7528           PUSH DWORD [EBP+0x28]
0x1001e2ef 83c804           OR EAX, 0x4
0x1001e2f2 ff7524           PUSH DWORD [EBP+0x24]
0x1001e2f5 ff7520           PUSH DWORD [EBP+0x20]

************************************************************************
Hook mode: Usermode
Hook type: Import Address Table (IAT)
Process: 1912 (ctfmon.exe)
Victim module: kernel32.dll (0x7c800000 - 0x7c8f6000)
Function: ntdll.dll!NtEnumerateValueKey
Hook address: 0x1001ec38
Hooking module: <unknown>

Disassembly(0):
0x1001ec38 55               PUSH EBP
0x1001ec39 8bec             MOV EBP, ESP
0x1001ec3b 83ec18           SUB ESP, 0x18
0x1001ec3e 837d0c00         CMP DWORD [EBP+0xc], 0x0
0x1001ec42 7507             JNZ 0x1001ec4b
0x1001ec44 83254cff081000   AND DWORD [0x1008ff4c], 0x0
0x1001ec4b 53               PUSH EBX
0x1001ec4c 8b5d14           MOV EBX, [EBP+0x14]
0x1001ec4f 56               PUSH ESI

************************************************************************
Hook mode: Usermode
Hook type: Import Address Table (IAT)
Process: 1912 (ctfmon.exe)
Victim module: kernel32.dll (0x7c800000 - 0x7c8f6000)
Function: ntdll.dll!NtQueryDirectoryFile
Hook address: 0x1001e6b0
Hooking module: <unknown>

Disassembly(0):
0x1001e6b0 b889ce0510       MOV EAX, 0x1005ce89
0x1001e6b5 e8426b0300       CALL 0x100551fc
0x1001e6ba 51               PUSH ECX
0x1001e6bb b868110000       MOV EAX, 0x1168
0x1001e6c0 e81bdf0200       CALL 0x1004c5e0
0x1001e6c5 53               PUSH EBX
0x1001e6c6 56               PUSH ESI
0x1001e6c7 57               PUSH EDI

************************************************************************
Hook mode: Usermode
Hook type: Import Address Table (IAT)
Process: 1912 (ctfmon.exe)
Victim module: msvcrt.dll (0x77c10000 - 0x77c68000)
Function: kernel32.dll!CreateProcessA
Hook address: 0x1001e2e0
Hooking module: <unknown>

Disassembly(0):
0x1001e2e0 55               PUSH EBP
0x1001e2e1 8bec             MOV EBP, ESP
0x1001e2e3 8b451c           MOV EAX, [EBP+0x1c]
0x1001e2e6 56               PUSH ESI
0x1001e2e7 8b752c           MOV ESI, [EBP+0x2c]
0x1001e2ea 57               PUSH EDI
0x1001e2eb 56               PUSH ESI
0x1001e2ec ff7528           PUSH DWORD [EBP+0x28]
0x1001e2ef 83c804           OR EAX, 0x4
0x1001e2f2 ff7524           PUSH DWORD [EBP+0x24]
0x1001e2f5 ff7520           PUSH DWORD [EBP+0x20]

************************************************************************
Hook mode: Usermode
Hook type: Import Address Table (IAT)
Process: 1912 (ctfmon.exe)
Victim module: msvcrt.dll (0x77c10000 - 0x77c68000)
Function: kernel32.dll!CreateProcessW
Hook address: 0x1001e325
Hooking module: <unknown>

Disassembly(0):
0x1001e325 55               PUSH EBP
0x1001e326 8bec             MOV EBP, ESP
0x1001e328 8b451c           MOV EAX, [EBP+0x1c]
0x1001e32b 56               PUSH ESI
0x1001e32c 8b752c           MOV ESI, [EBP+0x2c]
0x1001e32f 57               PUSH EDI
0x1001e330 56               PUSH ESI
0x1001e331 ff7528           PUSH DWORD [EBP+0x28]
0x1001e334 83c804           OR EAX, 0x4
0x1001e337 ff7524           PUSH DWORD [EBP+0x24]
0x1001e33a ff7520           PUSH DWORD [EBP+0x20]

************************************************************************
Hook mode: Usermode
Hook type: Import Address Table (IAT)
Process: 1912 (ctfmon.exe)
Victim module: ADVAPI32.dll (0x77dd0000 - 0x77e6b000)
Function: ntdll.dll!NtEnumerateValueKey
Hook address: 0x1001ec38
Hooking module: <unknown>

Disassembly(0):
0x1001ec38 55               PUSH EBP
0x1001ec39 8bec             MOV EBP, ESP
0x1001ec3b 83ec18           SUB ESP, 0x18
0x1001ec3e 837d0c00         CMP DWORD [EBP+0xc], 0x0
0x1001ec42 7507             JNZ 0x1001ec4b
0x1001ec44 83254cff081000   AND DWORD [0x1008ff4c], 0x0
0x1001ec4b 53               PUSH EBX
0x1001ec4c 8b5d14           MOV EBX, [EBP+0x14]
0x1001ec4f 56               PUSH ESI

************************************************************************
Hook mode: Usermode
Hook type: Import Address Table (IAT)
Process: 1912 (ctfmon.exe)
Victim module: USER32.dll (0x7e410000 - 0x7e4a1000)
Function: ntdll.dll!NtEnumerateValueKey
Hook address: 0x1001ec38
Hooking module: <unknown>

Disassembly(0):
0x1001ec38 55               PUSH EBP
0x1001ec39 8bec             MOV EBP, ESP
0x1001ec3b 83ec18           SUB ESP, 0x18
0x1001ec3e 837d0c00         CMP DWORD [EBP+0xc], 0x0
0x1001ec42 7507             JNZ 0x1001ec4b
0x1001ec44 83254cff081000   AND DWORD [0x1008ff4c], 0x0
0x1001ec4b 53               PUSH EBX
0x1001ec4c 8b5d14           MOV EBX, [EBP+0x14]
0x1001ec4f 56               PUSH ESI

************************************************************************
Hook mode: Usermode
Hook type: Import Address Table (IAT)
Process: 1912 (ctfmon.exe)
Victim module: USER32.dll (0x7e410000 - 0x7e4a1000)
Function: kernel32.dll!CreateProcessW
Hook address: 0x1001e325
Hooking module: <unknown>

Disassembly(0):
0x1001e325 55               PUSH EBP
0x1001e326 8bec             MOV EBP, ESP
0x1001e328 8b451c           MOV EAX, [EBP+0x1c]
0x1001e32b 56               PUSH ESI
0x1001e32c 8b752c           MOV ESI, [EBP+0x2c]
0x1001e32f 57               PUSH EDI
0x1001e330 56               PUSH ESI
0x1001e331 ff7528           PUSH DWORD [EBP+0x28]
0x1001e334 83c804           OR EAX, 0x4
0x1001e337 ff7524           PUSH DWORD [EBP+0x24]
0x1001e33a ff7520           PUSH DWORD [EBP+0x20]

************************************************************************
Hook mode: Usermode
Hook type: Import Address Table (IAT)
Process: 1912 (ctfmon.exe)
Victim module: MSCTF.dll (0x74720000 - 0x7476c000)
Function: kernel32.dll!CreateProcessA
Hook address: 0x1001e2e0
Hooking module: <unknown>

Disassembly(0):
0x1001e2e0 55               PUSH EBP
0x1001e2e1 8bec             MOV EBP, ESP
0x1001e2e3 8b451c           MOV EAX, [EBP+0x1c]
0x1001e2e6 56               PUSH ESI
0x1001e2e7 8b752c           MOV ESI, [EBP+0x2c]
0x1001e2ea 57               PUSH EDI
0x1001e2eb 56               PUSH ESI
0x1001e2ec ff7528           PUSH DWORD [EBP+0x28]
0x1001e2ef 83c804           OR EAX, 0x4
0x1001e2f2 ff7524           PUSH DWORD [EBP+0x24]
0x1001e2f5 ff7520           PUSH DWORD [EBP+0x20]

************************************************************************
Hook mode: Usermode
Hook type: Import Address Table (IAT)
Process: 1912 (ctfmon.exe)
Victim module: MSCTF.dll (0x74720000 - 0x7476c000)
Function: user32.dll!GetMessageW
Hook address: 0x1002dbd7
Hooking module: <unknown>

Disassembly(0):
0x1002dbd7 55               PUSH EBP
0x1002dbd8 8bec             MOV EBP, ESP
0x1002dbda 833d5c00091000   CMP DWORD [0x1009005c], 0x0
0x1002dbe1 56               PUSH ESI
0x1002dbe2 8b7508           MOV ESI, [EBP+0x8]
0x1002dbe5 57               PUSH EDI
0x1002dbe6 7412             JZ 0x1002dbfa
0x1002dbe8 8b4604           MOV EAX, [ESI+0x4]
0x1002dbeb 83f812           CMP EAX, 0x12
0x1002dbee 74               DB 0x74

************************************************************************
Hook mode: Usermode
Hook type: Import Address Table (IAT)
Process: 1912 (ctfmon.exe)
Victim module: ShimEng.dll (0x5cb70000 - 0x5cb96000)
Function: kernel32.dll!CreateProcessW
Hook address: 0x1001e325
Hooking module: <unknown>

Disassembly(0):
0x1001e325 55               PUSH EBP
0x1001e326 8bec             MOV EBP, ESP
0x1001e328 8b451c           MOV EAX, [EBP+0x1c]
0x1001e32b 56               PUSH ESI
0x1001e32c 8b752c           MOV ESI, [EBP+0x2c]
0x1001e32f 57               PUSH EDI
0x1001e330 56               PUSH ESI
0x1001e331 ff7528           PUSH DWORD [EBP+0x28]
0x1001e334 83c804           OR EAX, 0x4
0x1001e337 ff7524           PUSH DWORD [EBP+0x24]
0x1001e33a ff7520           PUSH DWORD [EBP+0x20]

************************************************************************
Hook mode: Usermode
Hook type: Import Address Table (IAT)
Process: 1912 (ctfmon.exe)
Victim module: AcGenral.DLL (0x6f880000 - 0x6fa4a000)
Function: kernel32.dll!CreateProcessW
Hook address: 0x1001e325
Hooking module: <unknown>

Disassembly(0):
0x1001e325 55               PUSH EBP
0x1001e326 8bec             MOV EBP, ESP
0x1001e328 8b451c           MOV EAX, [EBP+0x1c]
0x1001e32b 56               PUSH ESI
0x1001e32c 8b752c           MOV ESI, [EBP+0x2c]
0x1001e32f 57               PUSH EDI
0x1001e330 56               PUSH ESI
0x1001e331 ff7528           PUSH DWORD [EBP+0x28]
0x1001e334 83c804           OR EAX, 0x4
0x1001e337 ff7524           PUSH DWORD [EBP+0x24]
0x1001e33a ff7520           PUSH DWORD [EBP+0x20]

************************************************************************
Hook mode: Usermode
Hook type: Import Address Table (IAT)
Process: 1912 (ctfmon.exe)
Victim module: AcGenral.DLL (0x6f880000 - 0x6fa4a000)
Function: kernel32.dll!CreateProcessA
Hook address: 0x1001e2e0
Hooking module: <unknown>

Disassembly(0):
0x1001e2e0 55               PUSH EBP
0x1001e2e1 8bec             MOV EBP, ESP
0x1001e2e3 8b451c           MOV EAX, [EBP+0x1c]
0x1001e2e6 56               PUSH ESI
0x1001e2e7 8b752c           MOV ESI, [EBP+0x2c]
0x1001e2ea 57               PUSH EDI
0x1001e2eb 56               PUSH ESI
0x1001e2ec ff7528           PUSH DWORD [EBP+0x28]
0x1001e2ef 83c804           OR EAX, 0x4
0x1001e2f2 ff7524           PUSH DWORD [EBP+0x24]
0x1001e2f5 ff7520           PUSH DWORD [EBP+0x20]

************************************************************************
Hook mode: Usermode
Hook type: Import Address Table (IAT)
Process: 1912 (ctfmon.exe)
Victim module: AcGenral.DLL (0x6f880000 - 0x6fa4a000)
Function: user32.dll!GetMessageW
Hook address: 0x1002dbd7
Hooking module: <unknown>

Disassembly(0):
0x1002dbd7 55               PUSH EBP
0x1002dbd8 8bec             MOV EBP, ESP
0x1002dbda 833d5c00091000   CMP DWORD [0x1009005c], 0x0
0x1002dbe1 56               PUSH ESI
0x1002dbe2 8b7508           MOV ESI, [EBP+0x8]
0x1002dbe5 57               PUSH EDI
0x1002dbe6 7412             JZ 0x1002dbfa
0x1002dbe8 8b4604           MOV EAX, [ESI+0x4]
0x1002dbeb 83f812           CMP EAX, 0x12
0x1002dbee 74               DB 0x74

************************************************************************
Hook mode: Usermode
Hook type: Import Address Table (IAT)
Process: 1912 (ctfmon.exe)
Victim module: ole32.dll (0x774e0000 - 0x7761e000)
Function: kernel32.dll!CreateProcessW
Hook address: 0x1001e325
Hooking module: <unknown>

Disassembly(0):
0x1001e325 55               PUSH EBP
0x1001e326 8bec             MOV EBP, ESP
0x1001e328 8b451c           MOV EAX, [EBP+0x1c]
0x1001e32b 56               PUSH ESI
0x1001e32c 8b752c           MOV ESI, [EBP+0x2c]
0x1001e32f 57               PUSH EDI
0x1001e330 56               PUSH ESI
0x1001e331 ff7528           PUSH DWORD [EBP+0x28]
0x1001e334 83c804           OR EAX, 0x4
0x1001e337 ff7524           PUSH DWORD [EBP+0x24]
0x1001e33a ff7520           PUSH DWORD [EBP+0x20]

************************************************************************
Hook mode: Usermode
Hook type: Import Address Table (IAT)
Process: 1912 (ctfmon.exe)
Victim module: ole32.dll (0x774e0000 - 0x7761e000)
Function: user32.dll!GetMessageW
Hook address: 0x1002dbd7
Hooking module: <unknown>

Disassembly(0):
0x1002dbd7 55               PUSH EBP
0x1002dbd8 8bec             MOV EBP, ESP
0x1002dbda 833d5c00091000   CMP DWORD [0x1009005c], 0x0
0x1002dbe1 56               PUSH ESI
0x1002dbe2 8b7508           MOV ESI, [EBP+0x8]
0x1002dbe5 57               PUSH EDI
0x1002dbe6 7412             JZ 0x1002dbfa
0x1002dbe8 8b4604           MOV EAX, [ESI+0x4]
0x1002dbeb 83f812           CMP EAX, 0x12
0x1002dbee 74               DB 0x74

************************************************************************
Hook mode: Usermode
Hook type: Import Address Table (IAT)
Process: 1912 (ctfmon.exe)
Victim module: OLEAUT32.dll (0x77120000 - 0x771ab000)
Function: user32.dll!GetMessageW
Hook address: 0x1002dbd7
Hooking module: <unknown>

Disassembly(0):
0x1002dbd7 55               PUSH EBP
0x1002dbd8 8bec             MOV EBP, ESP
0x1002dbda 833d5c00091000   CMP DWORD [0x1009005c], 0x0
0x1002dbe1 56               PUSH ESI
0x1002dbe2 8b7508           MOV ESI, [EBP+0x8]
0x1002dbe5 57               PUSH EDI
0x1002dbe6 7412             JZ 0x1002dbfa
0x1002dbe8 8b4604           MOV EAX, [ESI+0x4]
0x1002dbeb 83f812           CMP EAX, 0x12
0x1002dbee 74               DB 0x74

************************************************************************
Hook mode: Usermode
Hook type: Import Address Table (IAT)
Process: 1912 (ctfmon.exe)
Victim module: SHELL32.dll (0x7c9c0000 - 0x7d1d7000)
Function: kernel32.dll!CreateProcessW
Hook address: 0x1001e325
Hooking module: <unknown>

Disassembly(0):
0x1001e325 55               PUSH EBP
0x1001e326 8bec             MOV EBP, ESP
0x1001e328 8b451c           MOV EAX, [EBP+0x1c]
0x1001e32b 56               PUSH ESI
0x1001e32c 8b752c           MOV ESI, [EBP+0x2c]
0x1001e32f 57               PUSH EDI
0x1001e330 56               PUSH ESI
0x1001e331 ff7528           PUSH DWORD [EBP+0x28]
0x1001e334 83c804           OR EAX, 0x4
0x1001e337 ff7524           PUSH DWORD [EBP+0x24]
0x1001e33a ff7520           PUSH DWORD [EBP+0x20]

************************************************************************
Hook mode: Usermode
Hook type: Import Address Table (IAT)
Process: 1912 (ctfmon.exe)
Victim module: SHELL32.dll (0x7c9c0000 - 0x7d1d7000)
Function: ntdll.dll!NtEnumerateValueKey
Hook address: 0x1001ec38
Hooking module: <unknown>

Disassembly(0):
0x1001ec38 55               PUSH EBP
0x1001ec39 8bec             MOV EBP, ESP
0x1001ec3b 83ec18           SUB ESP, 0x18
0x1001ec3e 837d0c00         CMP DWORD [EBP+0xc], 0x0
0x1001ec42 7507             JNZ 0x1001ec4b
0x1001ec44 83254cff081000   AND DWORD [0x1008ff4c], 0x0
0x1001ec4b 53               PUSH EBX
0x1001ec4c 8b5d14           MOV EBX, [EBP+0x14]
0x1001ec4f 56               PUSH ESI

************************************************************************
Hook mode: Usermode
Hook type: Import Address Table (IAT)
Process: 1912 (ctfmon.exe)
Victim module: SHELL32.dll (0x7c9c0000 - 0x7d1d7000)
Function: user32.dll!GetMessageW
Hook address: 0x1002dbd7
Hooking module: <unknown>

Disassembly(0):
0x1002dbd7 55               PUSH EBP
0x1002dbd8 8bec             MOV EBP, ESP
0x1002dbda 833d5c00091000   CMP DWORD [0x1009005c], 0x0
0x1002dbe1 56               PUSH ESI
0x1002dbe2 8b7508           MOV ESI, [EBP+0x8]
0x1002dbe5 57               PUSH EDI
0x1002dbe6 7412             JZ 0x1002dbfa
0x1002dbe8 8b4604           MOV EAX, [ESI+0x4]
0x1002dbeb 83f812           CMP EAX, 0x12
0x1002dbee 74               DB 0x74

************************************************************************
Hook mode: Usermode
Hook type: Import Address Table (IAT)
Process: 1912 (ctfmon.exe)
Victim module: SHELL32.dll (0x7c9c0000 - 0x7d1d7000)
Function: user32.dll!ExitWindowsEx
Hook address: 0x1002db80
Hooking module: <unknown>

Disassembly(0):
0x1002db80 55               PUSH EBP
0x1002db81 8bec             MOV EBP, ESP
0x1002db83 51               PUSH ECX
0x1002db84 56               PUSH ESI
0x1002db85 ff152c140610     CALL DWORD [0x1006142c]
0x1002db8b 2b0518000910     SUB EAX, [0x10090018]
0x1002db91 3dc0d40100       CMP EAX, 0x1d4c0
0x1002db96 762d             JBE 0x1002dbc5

************************************************************************
Hook mode: Usermode
Hook type: Import Address Table (IAT)
Process: 1912 (ctfmon.exe)
Victim module: SHLWAPI.dll (0x77f60000 - 0x77fd6000)
Function: kernel32.dll!CreateProcessA
Hook address: 0x1001e2e0
Hooking module: <unknown>

Disassembly(0):
0x1001e2e0 55               PUSH EBP
0x1001e2e1 8bec             MOV EBP, ESP
0x1001e2e3 8b451c           MOV EAX, [EBP+0x1c]
0x1001e2e6 56               PUSH ESI
0x1001e2e7 8b752c           MOV ESI, [EBP+0x2c]
0x1001e2ea 57               PUSH EDI
0x1001e2eb 56               PUSH ESI
0x1001e2ec ff7528           PUSH DWORD [EBP+0x28]
0x1001e2ef 83c804           OR EAX, 0x4
0x1001e2f2 ff7524           PUSH DWORD [EBP+0x24]
0x1001e2f5 ff7520           PUSH DWORD [EBP+0x20]

************************************************************************
Hook mode: Usermode
Hook type: Import Address Table (IAT)
Process: 1912 (ctfmon.exe)
Victim module: SHLWAPI.dll (0x77f60000 - 0x77fd6000)
Function: kernel32.dll!CreateProcessW
Hook address: 0x1001e325
Hooking module: <unknown>

Disassembly(0):
0x1001e325 55               PUSH EBP
0x1001e326 8bec             MOV EBP, ESP
0x1001e328 8b451c           MOV EAX, [EBP+0x1c]
0x1001e32b 56               PUSH ESI
0x1001e32c 8b752c           MOV ESI, [EBP+0x2c]
0x1001e32f 57               PUSH EDI
0x1001e330 56               PUSH ESI
0x1001e331 ff7528           PUSH DWORD [EBP+0x28]
0x1001e334 83c804           OR EAX, 0x4
0x1001e337 ff7524           PUSH DWORD [EBP+0x24]
0x1001e33a ff7520           PUSH DWORD [EBP+0x20]

************************************************************************
Hook mode: Usermode
Hook type: Import Address Table (IAT)
Process: 1912 (ctfmon.exe)
Victim module: SHLWAPI.dll (0x77f60000 - 0x77fd6000)
Function: user32.dll!GetMessageW
Hook address: 0x1002dbd7
Hooking module: <unknown>

Disassembly(0):
0x1002dbd7 55               PUSH EBP
0x1002dbd8 8bec             MOV EBP, ESP
0x1002dbda 833d5c00091000   CMP DWORD [0x1009005c], 0x0
0x1002dbe1 56               PUSH ESI
0x1002dbe2 8b7508           MOV ESI, [EBP+0x8]
0x1002dbe5 57               PUSH EDI
0x1002dbe6 7412             JZ 0x1002dbfa
0x1002dbe8 8b4604           MOV EAX, [ESI+0x4]
0x1002dbeb 83f812           CMP EAX, 0x12
0x1002dbee 74               DB 0x74

************************************************************************
Hook mode: Usermode
Hook type: Import Address Table (IAT)
Process: 1912 (ctfmon.exe)
Victim module: USERENV.dll (0x769c0000 - 0x76a74000)
Function: kernel32.dll!CreateProcessW
Hook address: 0x1001e325
Hooking module: <unknown>

Disassembly(0):
0x1001e325 55               PUSH EBP
0x1001e326 8bec             MOV EBP, ESP
0x1001e328 8b451c           MOV EAX, [EBP+0x1c]
0x1001e32b 56               PUSH ESI
0x1001e32c 8b752c           MOV ESI, [EBP+0x2c]
0x1001e32f 57               PUSH EDI
0x1001e330 56               PUSH ESI
0x1001e331 ff7528           PUSH DWORD [EBP+0x28]
0x1001e334 83c804           OR EAX, 0x4
0x1001e337 ff7524           PUSH DWORD [EBP+0x24]
0x1001e33a ff7520           PUSH DWORD [EBP+0x20]

************************************************************************
Hook mode: Usermode
Hook type: Import Address Table (IAT)
Process: 1912 (ctfmon.exe)
Victim module: UxTheme.dll (0x5ad70000 - 0x5ada8000)
Function: user32.dll!GetMessageW
Hook address: 0x1002dbd7
Hooking module: <unknown>

Disassembly(0):
0x1002dbd7 55               PUSH EBP
0x1002dbd8 8bec             MOV EBP, ESP
0x1002dbda 833d5c00091000   CMP DWORD [0x1009005c], 0x0
0x1002dbe1 56               PUSH ESI
0x1002dbe2 8b7508           MOV ESI, [EBP+0x8]
0x1002dbe5 57               PUSH EDI
0x1002dbe6 7412             JZ 0x1002dbfa
0x1002dbe8 8b4604           MOV EAX, [ESI+0x4]
0x1002dbeb 83f812           CMP EAX, 0x12
0x1002dbee 74               DB 0x74

************************************************************************
Hook mode: Usermode
Hook type: Import Address Table (IAT)
Process: 1912 (ctfmon.exe)
Victim module: comctl32.dll (0x773d0000 - 0x774d3000)
Function: user32.dll!GetMessageW
Hook address: 0x1002dbd7
Hooking module: <unknown>

Disassembly(0):
0x1002dbd7 55               PUSH EBP
0x1002dbd8 8bec             MOV EBP, ESP
0x1002dbda 833d5c00091000   CMP DWORD [0x1009005c], 0x0
0x1002dbe1 56               PUSH ESI
0x1002dbe2 8b7508           MOV ESI, [EBP+0x8]
0x1002dbe5 57               PUSH EDI
0x1002dbe6 7412             JZ 0x1002dbfa
0x1002dbe8 8b4604           MOV EAX, [ESI+0x4]
0x1002dbeb 83f812           CMP EAX, 0x12
0x1002dbee 74               DB 0x74

************************************************************************
Hook mode: Usermode
Hook type: Import Address Table (IAT)
Process: 1912 (ctfmon.exe)
Victim module: iertutil.dll (0x3dfd0000 - 0x3e015000)
Function: user32.dll!GetMessageW
Hook address: 0x1002dbd7
Hooking module: <unknown>

Disassembly(0):
0x1002dbd7 55               PUSH EBP
0x1002dbd8 8bec             MOV EBP, ESP
0x1002dbda 833d5c00091000   CMP DWORD [0x1009005c], 0x0
0x1002dbe1 56               PUSH ESI
0x1002dbe2 8b7508           MOV ESI, [EBP+0x8]
0x1002dbe5 57               PUSH EDI
0x1002dbe6 7412             JZ 0x1002dbfa
0x1002dbe8 8b4604           MOV EAX, [ESI+0x4]
0x1002dbeb 83f812           CMP EAX, 0x12
0x1002dbee 74               DB 0x74

************************************************************************
Hook mode: Usermode
Hook type: Import Address Table (IAT)
Process: 1912 (ctfmon.exe)
Victim module: WS2HELP.dll (0x71aa0000 - 0x71aa8000)
Function: ntdll.dll!NtQueryDirectoryFile
Hook address: 0x1001e6b0
Hooking module: <unknown>

Disassembly(0):
0x1001e6b0 b889ce0510       MOV EAX, 0x1005ce89
0x1001e6b5 e8426b0300       CALL 0x100551fc
0x1001e6ba 51               PUSH ECX
0x1001e6bb b868110000       MOV EAX, 0x1168
0x1001e6c0 e81bdf0200       CALL 0x1004c5e0
0x1001e6c5 53               PUSH EBX
0x1001e6c6 56               PUSH ESI
0x1001e6c7 57               PUSH EDI

************************************************************************
Hook mode: Usermode
Hook type: Import Address Table (IAT)
Process: 2028 (wscntfy.exe)
Victim module: wscntfy.exe (0x1000000 - 0x1006000)
Function: kernel32.dll!CreateProcessW
Hook address: 0x1001e325
Hooking module: <unknown>

Disassembly(0):
0x1001e325 55               PUSH EBP
0x1001e326 8bec             MOV EBP, ESP
0x1001e328 8b451c           MOV EAX, [EBP+0x1c]
0x1001e32b 56               PUSH ESI
0x1001e32c 8b752c           MOV ESI, [EBP+0x2c]
0x1001e32f 57               PUSH EDI
0x1001e330 56               PUSH ESI
0x1001e331 ff7528           PUSH DWORD [EBP+0x28]
0x1001e334 83c804           OR EAX, 0x4
0x1001e337 ff7524           PUSH DWORD [EBP+0x24]
0x1001e33a ff7520           PUSH DWORD [EBP+0x20]

************************************************************************
Hook mode: Usermode
Hook type: Import Address Table (IAT)
Process: 2028 (wscntfy.exe)
Victim module: kernel32.dll (0x7c800000 - 0x7c8f6000)
Function: ntdll.dll!NtEnumerateValueKey
Hook address: 0x1001ec38
Hooking module: <unknown>

Disassembly(0):
0x1001ec38 55               PUSH EBP
0x1001ec39 8bec             MOV EBP, ESP
0x1001ec3b 83ec18           SUB ESP, 0x18
0x1001ec3e 837d0c00         CMP DWORD [EBP+0xc], 0x0
0x1001ec42 7507             JNZ 0x1001ec4b
0x1001ec44 83254cff081000   AND DWORD [0x1008ff4c], 0x0
0x1001ec4b 53               PUSH EBX
0x1001ec4c 8b5d14           MOV EBX, [EBP+0x14]
0x1001ec4f 56               PUSH ESI

************************************************************************
Hook mode: Usermode
Hook type: Import Address Table (IAT)
Process: 2028 (wscntfy.exe)
Victim module: kernel32.dll (0x7c800000 - 0x7c8f6000)
Function: ntdll.dll!NtQueryDirectoryFile
Hook address: 0x1001e6b0
Hooking module: <unknown>

Disassembly(0):
0x1001e6b0 b889ce0510       MOV EAX, 0x1005ce89
0x1001e6b5 e8426b0300       CALL 0x100551fc
0x1001e6ba 51               PUSH ECX
0x1001e6bb b868110000       MOV EAX, 0x1168
0x1001e6c0 e81bdf0200       CALL 0x1004c5e0
0x1001e6c5 53               PUSH EBX
0x1001e6c6 56               PUSH ESI
0x1001e6c7 57               PUSH EDI

************************************************************************
Hook mode: Usermode
Hook type: Import Address Table (IAT)
Process: 2028 (wscntfy.exe)
Victim module: msvcrt.dll (0x77c10000 - 0x77c68000)
Function: kernel32.dll!CreateProcessA
Hook address: 0x1001e2e0
Hooking module: <unknown>

Disassembly(0):
0x1001e2e0 55               PUSH EBP
0x1001e2e1 8bec             MOV EBP, ESP
0x1001e2e3 8b451c           MOV EAX, [EBP+0x1c]
0x1001e2e6 56               PUSH ESI
0x1001e2e7 8b752c           MOV ESI, [EBP+0x2c]
0x1001e2ea 57               PUSH EDI
0x1001e2eb 56               PUSH ESI
0x1001e2ec ff7528           PUSH DWORD [EBP+0x28]
0x1001e2ef 83c804           OR EAX, 0x4
0x1001e2f2 ff7524           PUSH DWORD [EBP+0x24]
0x1001e2f5 ff7520           PUSH DWORD [EBP+0x20]

************************************************************************
Hook mode: Usermode
Hook type: Import Address Table (IAT)
Process: 2028 (wscntfy.exe)
Victim module: msvcrt.dll (0x77c10000 - 0x77c68000)
Function: kernel32.dll!CreateProcessW
Hook address: 0x1001e325
Hooking module: <unknown>

Disassembly(0):
0x1001e325 55               PUSH EBP
0x1001e326 8bec             MOV EBP, ESP
0x1001e328 8b451c           MOV EAX, [EBP+0x1c]
0x1001e32b 56               PUSH ESI
0x1001e32c 8b752c           MOV ESI, [EBP+0x2c]
0x1001e32f 57               PUSH EDI
0x1001e330 56               PUSH ESI
0x1001e331 ff7528           PUSH DWORD [EBP+0x28]
0x1001e334 83c804           OR EAX, 0x4
0x1001e337 ff7524           PUSH DWORD [EBP+0x24]
0x1001e33a ff7520           PUSH DWORD [EBP+0x20]

************************************************************************
Hook mode: Usermode
Hook type: Import Address Table (IAT)
Process: 2028 (wscntfy.exe)
Victim module: USER32.dll (0x7e410000 - 0x7e4a1000)
Function: ntdll.dll!NtEnumerateValueKey
Hook address: 0x1001ec38
Hooking module: <unknown>

Disassembly(0):
0x1001ec38 55               PUSH EBP
0x1001ec39 8bec             MOV EBP, ESP
0x1001ec3b 83ec18           SUB ESP, 0x18
0x1001ec3e 837d0c00         CMP DWORD [EBP+0xc], 0x0
0x1001ec42 7507             JNZ 0x1001ec4b
0x1001ec44 83254cff081000   AND DWORD [0x1008ff4c], 0x0
0x1001ec4b 53               PUSH EBX
0x1001ec4c 8b5d14           MOV EBX, [EBP+0x14]
0x1001ec4f 56               PUSH ESI

************************************************************************
Hook mode: Usermode
Hook type: Import Address Table (IAT)
Process: 2028 (wscntfy.exe)
Victim module: USER32.dll (0x7e410000 - 0x7e4a1000)
Function: kernel32.dll!CreateProcessW
Hook address: 0x1001e325
Hooking module: <unknown>

Disassembly(0):
0x1001e325 55               PUSH EBP
0x1001e326 8bec             MOV EBP, ESP
0x1001e328 8b451c           MOV EAX, [EBP+0x1c]
0x1001e32b 56               PUSH ESI
0x1001e32c 8b752c           MOV ESI, [EBP+0x2c]
0x1001e32f 57               PUSH EDI
0x1001e330 56               PUSH ESI
0x1001e331 ff7528           PUSH DWORD [EBP+0x28]
0x1001e334 83c804           OR EAX, 0x4
0x1001e337 ff7524           PUSH DWORD [EBP+0x24]
0x1001e33a ff7520           PUSH DWORD [EBP+0x20]

************************************************************************
Hook mode: Usermode
Hook type: Import Address Table (IAT)
Process: 2028 (wscntfy.exe)
Victim module: SHELL32.dll (0x7c9c0000 - 0x7d1d7000)
Function: kernel32.dll!CreateProcessW
Hook address: 0x1001e325
Hooking module: <unknown>

Disassembly(0):
0x1001e325 55               PUSH EBP
0x1001e326 8bec             MOV EBP, ESP
0x1001e328 8b451c           MOV EAX, [EBP+0x1c]
0x1001e32b 56               PUSH ESI
0x1001e32c 8b752c           MOV ESI, [EBP+0x2c]
0x1001e32f 57               PUSH EDI
0x1001e330 56               PUSH ESI
0x1001e331 ff7528           PUSH DWORD [EBP+0x28]
0x1001e334 83c804           OR EAX, 0x4
0x1001e337 ff7524           PUSH DWORD [EBP+0x24]
0x1001e33a ff7520           PUSH DWORD [EBP+0x20]

************************************************************************
Hook mode: Usermode
Hook type: Import Address Table (IAT)
Process: 2028 (wscntfy.exe)
Victim module: SHELL32.dll (0x7c9c0000 - 0x7d1d7000)
Function: ntdll.dll!NtEnumerateValueKey
Hook address: 0x1001ec38
Hooking module: <unknown>

Disassembly(0):
0x1001ec38 55               PUSH EBP
0x1001ec39 8bec             MOV EBP, ESP
0x1001ec3b 83ec18           SUB ESP, 0x18
0x1001ec3e 837d0c00         CMP DWORD [EBP+0xc], 0x0
0x1001ec42 7507             JNZ 0x1001ec4b
0x1001ec44 83254cff081000   AND DWORD [0x1008ff4c], 0x0
0x1001ec4b 53               PUSH EBX
0x1001ec4c 8b5d14           MOV EBX, [EBP+0x14]
0x1001ec4f 56               PUSH ESI

************************************************************************
Hook mode: Usermode
Hook type: Import Address Table (IAT)
Process: 2028 (wscntfy.exe)
Victim module: SHELL32.dll (0x7c9c0000 - 0x7d1d7000)
Function: user32.dll!GetMessageW
Hook address: 0x1002dbd7
Hooking module: <unknown>

Disassembly(0):
0x1002dbd7 55               PUSH EBP
0x1002dbd8 8bec             MOV EBP, ESP
0x1002dbda 833d5c00091000   CMP DWORD [0x1009005c], 0x0
0x1002dbe1 56               PUSH ESI
0x1002dbe2 8b7508           MOV ESI, [EBP+0x8]
0x1002dbe5 57               PUSH EDI
0x1002dbe6 7412             JZ 0x1002dbfa
0x1002dbe8 8b4604           MOV EAX, [ESI+0x4]
0x1002dbeb 83f812           CMP EAX, 0x12
0x1002dbee 74               DB 0x74

************************************************************************
Hook mode: Usermode
Hook type: Import Address Table (IAT)
Process: 2028 (wscntfy.exe)
Victim module: SHELL32.dll (0x7c9c0000 - 0x7d1d7000)
Function: user32.dll!ExitWindowsEx
Hook address: 0x1002db80
Hooking module: <unknown>

Disassembly(0):
0x1002db80 55               PUSH EBP
0x1002db81 8bec             MOV EBP, ESP
0x1002db83 51               PUSH ECX
0x1002db84 56               PUSH ESI
0x1002db85 ff152c140610     CALL DWORD [0x1006142c]
0x1002db8b 2b0518000910     SUB EAX, [0x10090018]
0x1002db91 3dc0d40100       CMP EAX, 0x1d4c0
0x1002db96 762d             JBE 0x1002dbc5

************************************************************************
Hook mode: Usermode
Hook type: Import Address Table (IAT)
Process: 2028 (wscntfy.exe)
Victim module: ADVAPI32.dll (0x77dd0000 - 0x77e6b000)
Function: ntdll.dll!NtEnumerateValueKey
Hook address: 0x1001ec38
Hooking module: <unknown>

Disassembly(0):
0x1001ec38 55               PUSH EBP
0x1001ec39 8bec             MOV EBP, ESP
0x1001ec3b 83ec18           SUB ESP, 0x18
0x1001ec3e 837d0c00         CMP DWORD [EBP+0xc], 0x0
0x1001ec42 7507             JNZ 0x1001ec4b
0x1001ec44 83254cff081000   AND DWORD [0x1008ff4c], 0x0
0x1001ec4b 53               PUSH EBX
0x1001ec4c 8b5d14           MOV EBX, [EBP+0x14]
0x1001ec4f 56               PUSH ESI

************************************************************************
Hook mode: Usermode
Hook type: Import Address Table (IAT)
Process: 2028 (wscntfy.exe)
Victim module: SHLWAPI.dll (0x77f60000 - 0x77fd6000)
Function: kernel32.dll!CreateProcessA
Hook address: 0x1001e2e0
Hooking module: <unknown>

Disassembly(0):
0x1001e2e0 55               PUSH EBP
0x1001e2e1 8bec             MOV EBP, ESP
0x1001e2e3 8b451c           MOV EAX, [EBP+0x1c]
0x1001e2e6 56               PUSH ESI
0x1001e2e7 8b752c           MOV ESI, [EBP+0x2c]
0x1001e2ea 57               PUSH EDI
0x1001e2eb 56               PUSH ESI
0x1001e2ec ff7528           PUSH DWORD [EBP+0x28]
0x1001e2ef 83c804           OR EAX, 0x4
0x1001e2f2 ff7524           PUSH DWORD [EBP+0x24]
0x1001e2f5 ff7520           PUSH DWORD [EBP+0x20]

************************************************************************
Hook mode: Usermode
Hook type: Import Address Table (IAT)
Process: 2028 (wscntfy.exe)
Victim module: SHLWAPI.dll (0x77f60000 - 0x77fd6000)
Function: kernel32.dll!CreateProcessW
Hook address: 0x1001e325
Hooking module: <unknown>

Disassembly(0):
0x1001e325 55               PUSH EBP
0x1001e326 8bec             MOV EBP, ESP
0x1001e328 8b451c           MOV EAX, [EBP+0x1c]
0x1001e32b 56               PUSH ESI
0x1001e32c 8b752c           MOV ESI, [EBP+0x2c]
0x1001e32f 57               PUSH EDI
0x1001e330 56               PUSH ESI
0x1001e331 ff7528           PUSH DWORD [EBP+0x28]
0x1001e334 83c804           OR EAX, 0x4
0x1001e337 ff7524           PUSH DWORD [EBP+0x24]
0x1001e33a ff7520           PUSH DWORD [EBP+0x20]

************************************************************************
Hook mode: Usermode
Hook type: Import Address Table (IAT)
Process: 2028 (wscntfy.exe)
Victim module: SHLWAPI.dll (0x77f60000 - 0x77fd6000)
Function: user32.dll!GetMessageW
Hook address: 0x1002dbd7
Hooking module: <unknown>

Disassembly(0):
0x1002dbd7 55               PUSH EBP
0x1002dbd8 8bec             MOV EBP, ESP
0x1002dbda 833d5c00091000   CMP DWORD [0x1009005c], 0x0
0x1002dbe1 56               PUSH ESI
0x1002dbe2 8b7508           MOV ESI, [EBP+0x8]
0x1002dbe5 57               PUSH EDI
0x1002dbe6 7412             JZ 0x1002dbfa
0x1002dbe8 8b4604           MOV EAX, [ESI+0x4]
0x1002dbeb 83f812           CMP EAX, 0x12
0x1002dbee 74               DB 0x74

************************************************************************
Hook mode: Usermode
Hook type: Import Address Table (IAT)
Process: 2028 (wscntfy.exe)
Victim module: comctl32.dll (0x773d0000 - 0x774d3000)
Function: user32.dll!GetMessageW
Hook address: 0x1002dbd7
Hooking module: <unknown>

Disassembly(0):
0x1002dbd7 55               PUSH EBP
0x1002dbd8 8bec             MOV EBP, ESP
0x1002dbda 833d5c00091000   CMP DWORD [0x1009005c], 0x0
0x1002dbe1 56               PUSH ESI
0x1002dbe2 8b7508           MOV ESI, [EBP+0x8]
0x1002dbe5 57               PUSH EDI
0x1002dbe6 7412             JZ 0x1002dbfa
0x1002dbe8 8b4604           MOV EAX, [ESI+0x4]
0x1002dbeb 83f812           CMP EAX, 0x12
0x1002dbee 74               DB 0x74

************************************************************************
Hook mode: Usermode
Hook type: Import Address Table (IAT)
Process: 2028 (wscntfy.exe)
Victim module: MSCTF.dll (0x74720000 - 0x7476c000)
Function: kernel32.dll!CreateProcessA
Hook address: 0x1001e2e0
Hooking module: <unknown>

Disassembly(0):
0x1001e2e0 55               PUSH EBP
0x1001e2e1 8bec             MOV EBP, ESP
0x1001e2e3 8b451c           MOV EAX, [EBP+0x1c]
0x1001e2e6 56               PUSH ESI
0x1001e2e7 8b752c           MOV ESI, [EBP+0x2c]
0x1001e2ea 57               PUSH EDI
0x1001e2eb 56               PUSH ESI
0x1001e2ec ff7528           PUSH DWORD [EBP+0x28]
0x1001e2ef 83c804           OR EAX, 0x4
0x1001e2f2 ff7524           PUSH DWORD [EBP+0x24]
0x1001e2f5 ff7520           PUSH DWORD [EBP+0x20]

************************************************************************
Hook mode: Usermode
Hook type: Import Address Table (IAT)
Process: 2028 (wscntfy.exe)
Victim module: MSCTF.dll (0x74720000 - 0x7476c000)
Function: user32.dll!GetMessageW
Hook address: 0x1002dbd7
Hooking module: <unknown>

Disassembly(0):
0x1002dbd7 55               PUSH EBP
0x1002dbd8 8bec             MOV EBP, ESP
0x1002dbda 833d5c00091000   CMP DWORD [0x1009005c], 0x0
0x1002dbe1 56               PUSH ESI
0x1002dbe2 8b7508           MOV ESI, [EBP+0x8]
0x1002dbe5 57               PUSH EDI
0x1002dbe6 7412             JZ 0x1002dbfa
0x1002dbe8 8b4604           MOV EAX, [ESI+0x4]
0x1002dbeb 83f812           CMP EAX, 0x12
0x1002dbee 74               DB 0x74

************************************************************************
Hook mode: Usermode
Hook type: Import Address Table (IAT)
Process: 2028 (wscntfy.exe)
Victim module: ole32.dll (0x774e0000 - 0x7761e000)
Function: kernel32.dll!CreateProcessW
Hook address: 0x1001e325
Hooking module: <unknown>

Disassembly(0):
0x1001e325 55               PUSH EBP
0x1001e326 8bec             MOV EBP, ESP
0x1001e328 8b451c           MOV EAX, [EBP+0x1c]
0x1001e32b 56               PUSH ESI
0x1001e32c 8b752c           MOV ESI, [EBP+0x2c]
0x1001e32f 57               PUSH EDI
0x1001e330 56               PUSH ESI
0x1001e331 ff7528           PUSH DWORD [EBP+0x28]
0x1001e334 83c804           OR EAX, 0x4
0x1001e337 ff7524           PUSH DWORD [EBP+0x24]
0x1001e33a ff7520           PUSH DWORD [EBP+0x20]

************************************************************************
Hook mode: Usermode
Hook type: Import Address Table (IAT)
Process: 2028 (wscntfy.exe)
Victim module: ole32.dll (0x774e0000 - 0x7761e000)
Function: user32.dll!GetMessageW
Hook address: 0x1002dbd7
Hooking module: <unknown>

Disassembly(0):
0x1002dbd7 55               PUSH EBP
0x1002dbd8 8bec             MOV EBP, ESP
0x1002dbda 833d5c00091000   CMP DWORD [0x1009005c], 0x0
0x1002dbe1 56               PUSH ESI
0x1002dbe2 8b7508           MOV ESI, [EBP+0x8]
0x1002dbe5 57               PUSH EDI
0x1002dbe6 7412             JZ 0x1002dbfa
0x1002dbe8 8b4604           MOV EAX, [ESI+0x4]
0x1002dbeb 83f812           CMP EAX, 0x12
0x1002dbee 74               DB 0x74

************************************************************************
Hook mode: Usermode
Hook type: Import Address Table (IAT)
Process: 2028 (wscntfy.exe)
Victim module: iertutil.dll (0x3dfd0000 - 0x3e015000)
Function: user32.dll!GetMessageW
Hook address: 0x1002dbd7
Hooking module: <unknown>

Disassembly(0):
0x1002dbd7 55               PUSH EBP
0x1002dbd8 8bec             MOV EBP, ESP
0x1002dbda 833d5c00091000   CMP DWORD [0x1009005c], 0x0
0x1002dbe1 56               PUSH ESI
0x1002dbe2 8b7508           MOV ESI, [EBP+0x8]
0x1002dbe5 57               PUSH EDI
0x1002dbe6 7412             JZ 0x1002dbfa
0x1002dbe8 8b4604           MOV EAX, [ESI+0x4]
0x1002dbeb 83f812           CMP EAX, 0x12
0x1002dbee 74               DB 0x74

************************************************************************
Hook mode: Usermode
Hook type: Import Address Table (IAT)
Process: 2028 (wscntfy.exe)
Victim module: WS2HELP.dll (0x71aa0000 - 0x71aa8000)
Function: ntdll.dll!NtQueryDirectoryFile
Hook address: 0x1001e6b0
Hooking module: <unknown>

Disassembly(0):
0x1001e6b0 b889ce0510       MOV EAX, 0x1005ce89
0x1001e6b5 e8426b0300       CALL 0x100551fc
0x1001e6ba 51               PUSH ECX
0x1001e6bb b868110000       MOV EAX, 0x1168
0x1001e6c0 e81bdf0200       CALL 0x1004c5e0
0x1001e6c5 53               PUSH EBX
0x1001e6c6 56               PUSH ESI
0x1001e6c7 57               PUSH EDI

************************************************************************
Hook mode: Usermode
Hook type: Import Address Table (IAT)
Process: 2028 (wscntfy.exe)
Victim module: USERENV.dll (0x769c0000 - 0x76a74000)
Function: kernel32.dll!CreateProcessW
Hook address: 0x1001e325
Hooking module: <unknown>

Disassembly(0):
0x1001e325 55               PUSH EBP
0x1001e326 8bec             MOV EBP, ESP
0x1001e328 8b451c           MOV EAX, [EBP+0x1c]
0x1001e32b 56               PUSH ESI
0x1001e32c 8b752c           MOV ESI, [EBP+0x2c]
0x1001e32f 57               PUSH EDI
0x1001e330 56               PUSH ESI
0x1001e331 ff7528           PUSH DWORD [EBP+0x28]
0x1001e334 83c804           OR EAX, 0x4
0x1001e337 ff7524           PUSH DWORD [EBP+0x24]
0x1001e33a ff7520           PUSH DWORD [EBP+0x20]

************************************************************************
Hook mode: Usermode
Hook type: Import Address Table (IAT)
Process: 2028 (wscntfy.exe)
Victim module: OLEAUT32.dll (0x77120000 - 0x771ab000)
Function: user32.dll!GetMessageW
Hook address: 0x1002dbd7
Hooking module: <unknown>

Disassembly(0):
0x1002dbd7 55               PUSH EBP
0x1002dbd8 8bec             MOV EBP, ESP
0x1002dbda 833d5c00091000   CMP DWORD [0x1009005c], 0x0
0x1002dbe1 56               PUSH ESI
0x1002dbe2 8b7508           MOV ESI, [EBP+0x8]
0x1002dbe5 57               PUSH EDI
0x1002dbe6 7412             JZ 0x1002dbfa
0x1002dbe8 8b4604           MOV EAX, [ESI+0x4]
0x1002dbeb 83f812           CMP EAX, 0x12
0x1002dbee 74               DB 0x74

************************************************************************
Hook mode: Usermode
Hook type: Import Address Table (IAT)
Process: 3372 (TPAutoConnect.e)
Victim module: TPAutoConnect.exe (0x400000 - 0x472000)
Function: user32.dll!GetMessageW
Hook address: 0x1002dbd7
Hooking module: <unknown>

Disassembly(0):
0x1002dbd7 55               PUSH EBP
0x1002dbd8 8bec             MOV EBP, ESP
0x1002dbda 833d5c00091000   CMP DWORD [0x1009005c], 0x0
0x1002dbe1 56               PUSH ESI
0x1002dbe2 8b7508           MOV ESI, [EBP+0x8]
0x1002dbe5 57               PUSH EDI
0x1002dbe6 7412             JZ 0x1002dbfa
0x1002dbe8 8b4604           MOV EAX, [ESI+0x4]
0x1002dbeb 83f812           CMP EAX, 0x12
0x1002dbee 74               DB 0x74

************************************************************************
Hook mode: Usermode
Hook type: Import Address Table (IAT)
Process: 3372 (TPAutoConnect.e)
Victim module: kernel32.dll (0x7c800000 - 0x7c8f6000)
Function: ntdll.dll!NtEnumerateValueKey
Hook address: 0x1001ec38
Hooking module: <unknown>

Disassembly(0):
0x1001ec38 55               PUSH EBP
0x1001ec39 8bec             MOV EBP, ESP
0x1001ec3b 83ec18           SUB ESP, 0x18
0x1001ec3e 837d0c00         CMP DWORD [EBP+0xc], 0x0
0x1001ec42 7507             JNZ 0x1001ec4b
0x1001ec44 83254cff081000   AND DWORD [0x1008ff4c], 0x0
0x1001ec4b 53               PUSH EBX
0x1001ec4c 8b5d14           MOV EBX, [EBP+0x14]
0x1001ec4f 56               PUSH ESI

************************************************************************
Hook mode: Usermode
Hook type: Import Address Table (IAT)
Process: 3372 (TPAutoConnect.e)
Victim module: kernel32.dll (0x7c800000 - 0x7c8f6000)
Function: ntdll.dll!NtQueryDirectoryFile
Hook address: 0x1001e6b0
Hooking module: <unknown>

Disassembly(0):
0x1001e6b0 b889ce0510       MOV EAX, 0x1005ce89
0x1001e6b5 e8426b0300       CALL 0x100551fc
0x1001e6ba 51               PUSH ECX
0x1001e6bb b868110000       MOV EAX, 0x1168
0x1001e6c0 e81bdf0200       CALL 0x1004c5e0
0x1001e6c5 53               PUSH EBX
0x1001e6c6 56               PUSH ESI
0x1001e6c7 57               PUSH EDI

************************************************************************
Hook mode: Usermode
Hook type: Import Address Table (IAT)
Process: 3372 (TPAutoConnect.e)
Victim module: TPSvc.dll (0x41000000 - 0x41079000)
Function: kernel32.dll!CreateProcessW
Hook address: 0x1001e325
Hooking module: <unknown>

Disassembly(0):
0x1001e325 55               PUSH EBP
0x1001e326 8bec             MOV EBP, ESP
0x1001e328 8b451c           MOV EAX, [EBP+0x1c]
0x1001e32b 56               PUSH ESI
0x1001e32c 8b752c           MOV ESI, [EBP+0x2c]
0x1001e32f 57               PUSH EDI
0x1001e330 56               PUSH ESI
0x1001e331 ff7528           PUSH DWORD [EBP+0x28]
0x1001e334 83c804           OR EAX, 0x4
0x1001e337 ff7524           PUSH DWORD [EBP+0x24]
0x1001e33a ff7520           PUSH DWORD [EBP+0x20]

************************************************************************
Hook mode: Usermode
Hook type: Import Address Table (IAT)
Process: 3372 (TPAutoConnect.e)
Victim module: TPSvc.dll (0x41000000 - 0x41079000)
Function: user32.dll!GetMessageW
Hook address: 0x1002dbd7
Hooking module: <unknown>

Disassembly(0):
0x1002dbd7 55               PUSH EBP
0x1002dbd8 8bec             MOV EBP, ESP
0x1002dbda 833d5c00091000   CMP DWORD [0x1009005c], 0x0
0x1002dbe1 56               PUSH ESI
0x1002dbe2 8b7508           MOV ESI, [EBP+0x8]
0x1002dbe5 57               PUSH EDI
0x1002dbe6 7412             JZ 0x1002dbfa
0x1002dbe8 8b4604           MOV EAX, [ESI+0x4]
0x1002dbeb 83f812           CMP EAX, 0x12
0x1002dbee 74               DB 0x74

************************************************************************
Hook mode: Usermode
Hook type: Import Address Table (IAT)
Process: 3372 (TPAutoConnect.e)
Victim module: framedyn.dll (0x692c0000 - 0x692f0000)
Function: user32.dll!GetMessageW
Hook address: 0x1002dbd7
Hooking module: <unknown>

Disassembly(0):
0x1002dbd7 55               PUSH EBP
0x1002dbd8 8bec             MOV EBP, ESP
0x1002dbda 833d5c00091000   CMP DWORD [0x1009005c], 0x0
0x1002dbe1 56               PUSH ESI
0x1002dbe2 8b7508           MOV ESI, [EBP+0x8]
0x1002dbe5 57               PUSH EDI
0x1002dbe6 7412             JZ 0x1002dbfa
0x1002dbe8 8b4604           MOV EAX, [ESI+0x4]
0x1002dbeb 83f812           CMP EAX, 0x12
0x1002dbee 74               DB 0x74

************************************************************************
Hook mode: Usermode
Hook type: Import Address Table (IAT)
Process: 3372 (TPAutoConnect.e)
Victim module: framedyn.dll (0x692c0000 - 0x692f0000)
Function: user32.dll!ExitWindowsEx
Hook address: 0x1002db80
Hooking module: <unknown>

Disassembly(0):
0x1002db80 55               PUSH EBP
0x1002db81 8bec             MOV EBP, ESP
0x1002db83 51               PUSH ECX
0x1002db84 56               PUSH ESI
0x1002db85 ff152c140610     CALL DWORD [0x1006142c]
0x1002db8b 2b0518000910     SUB EAX, [0x10090018]
0x1002db91 3dc0d40100       CMP EAX, 0x1d4c0
0x1002db96 762d             JBE 0x1002dbc5

************************************************************************
Hook mode: Usermode
Hook type: Import Address Table (IAT)
Process: 3372 (TPAutoConnect.e)
Victim module: msvcrt.dll (0x77c10000 - 0x77c68000)
Function: kernel32.dll!CreateProcessA
Hook address: 0x1001e2e0
Hooking module: <unknown>

Disassembly(0):
0x1001e2e0 55               PUSH EBP
0x1001e2e1 8bec             MOV EBP, ESP
0x1001e2e3 8b451c           MOV EAX, [EBP+0x1c]
0x1001e2e6 56               PUSH ESI
0x1001e2e7 8b752c           MOV ESI, [EBP+0x2c]
0x1001e2ea 57               PUSH EDI
0x1001e2eb 56               PUSH ESI
0x1001e2ec ff7528           PUSH DWORD [EBP+0x28]
0x1001e2ef 83c804           OR EAX, 0x4
0x1001e2f2 ff7524           PUSH DWORD [EBP+0x24]
0x1001e2f5 ff7520           PUSH DWORD [EBP+0x20]

************************************************************************
Hook mode: Usermode
Hook type: Import Address Table (IAT)
Process: 3372 (TPAutoConnect.e)
Victim module: msvcrt.dll (0x77c10000 - 0x77c68000)
Function: kernel32.dll!CreateProcessW
Hook address: 0x1001e325
Hooking module: <unknown>

Disassembly(0):
0x1001e325 55               PUSH EBP
0x1001e326 8bec             MOV EBP, ESP
0x1001e328 8b451c           MOV EAX, [EBP+0x1c]
0x1001e32b 56               PUSH ESI
0x1001e32c 8b752c           MOV ESI, [EBP+0x2c]
0x1001e32f 57               PUSH EDI
0x1001e330 56               PUSH ESI
0x1001e331 ff7528           PUSH DWORD [EBP+0x28]
0x1001e334 83c804           OR EAX, 0x4
0x1001e337 ff7524           PUSH DWORD [EBP+0x24]
0x1001e33a ff7520           PUSH DWORD [EBP+0x20]

************************************************************************
Hook mode: Usermode
Hook type: Import Address Table (IAT)
Process: 3372 (TPAutoConnect.e)
Victim module: ADVAPI32.dll (0x77dd0000 - 0x77e6b000)
Function: ntdll.dll!NtEnumerateValueKey
Hook address: 0x1001ec38
Hooking module: <unknown>

Disassembly(0):
0x1001ec38 55               PUSH EBP
0x1001ec39 8bec             MOV EBP, ESP
0x1001ec3b 83ec18           SUB ESP, 0x18
0x1001ec3e 837d0c00         CMP DWORD [EBP+0xc], 0x0
0x1001ec42 7507             JNZ 0x1001ec4b
0x1001ec44 83254cff081000   AND DWORD [0x1008ff4c], 0x0
0x1001ec4b 53               PUSH EBX
0x1001ec4c 8b5d14           MOV EBX, [EBP+0x14]
0x1001ec4f 56               PUSH ESI

************************************************************************
Hook mode: Usermode
Hook type: Import Address Table (IAT)
Process: 3372 (TPAutoConnect.e)
Victim module: USER32.dll (0x7e410000 - 0x7e4a1000)
Function: ntdll.dll!NtEnumerateValueKey
Hook address: 0x1001ec38
Hooking module: <unknown>

Disassembly(0):
0x1001ec38 55               PUSH EBP
0x1001ec39 8bec             MOV EBP, ESP
0x1001ec3b 83ec18           SUB ESP, 0x18
0x1001ec3e 837d0c00         CMP DWORD [EBP+0xc], 0x0
0x1001ec42 7507             JNZ 0x1001ec4b
0x1001ec44 83254cff081000   AND DWORD [0x1008ff4c], 0x0
0x1001ec4b 53               PUSH EBX
0x1001ec4c 8b5d14           MOV EBX, [EBP+0x14]
0x1001ec4f 56               PUSH ESI

************************************************************************
Hook mode: Usermode
Hook type: Import Address Table (IAT)
Process: 3372 (TPAutoConnect.e)
Victim module: USER32.dll (0x7e410000 - 0x7e4a1000)
Function: kernel32.dll!CreateProcessW
Hook address: 0x1001e325
Hooking module: <unknown>

Disassembly(0):
0x1001e325 55               PUSH EBP
0x1001e326 8bec             MOV EBP, ESP
0x1001e328 8b451c           MOV EAX, [EBP+0x1c]
0x1001e32b 56               PUSH ESI
0x1001e32c 8b752c           MOV ESI, [EBP+0x2c]
0x1001e32f 57               PUSH EDI
0x1001e330 56               PUSH ESI
0x1001e331 ff7528           PUSH DWORD [EBP+0x28]
0x1001e334 83c804           OR EAX, 0x4
0x1001e337 ff7524           PUSH DWORD [EBP+0x24]
0x1001e33a ff7520           PUSH DWORD [EBP+0x20]

************************************************************************
Hook mode: Usermode
Hook type: Import Address Table (IAT)
Process: 3372 (TPAutoConnect.e)
Victim module: OLEAUT32.dll (0x77120000 - 0x771ab000)
Function: user32.dll!GetMessageW
Hook address: 0x1002dbd7
Hooking module: <unknown>

Disassembly(0):
0x1002dbd7 55               PUSH EBP
0x1002dbd8 8bec             MOV EBP, ESP
0x1002dbda 833d5c00091000   CMP DWORD [0x1009005c], 0x0
0x1002dbe1 56               PUSH ESI
0x1002dbe2 8b7508           MOV ESI, [EBP+0x8]
0x1002dbe5 57               PUSH EDI
0x1002dbe6 7412             JZ 0x1002dbfa
0x1002dbe8 8b4604           MOV EAX, [ESI+0x4]
0x1002dbeb 83f812           CMP EAX, 0x12
0x1002dbee 74               DB 0x74

************************************************************************
Hook mode: Usermode
Hook type: Import Address Table (IAT)
Process: 3372 (TPAutoConnect.e)
Victim module: ole32.dll (0x774e0000 - 0x7761e000)
Function: kernel32.dll!CreateProcessW
Hook address: 0x1001e325
Hooking module: <unknown>

Disassembly(0):
0x1001e325 55               PUSH EBP
0x1001e326 8bec             MOV EBP, ESP
0x1001e328 8b451c           MOV EAX, [EBP+0x1c]
0x1001e32b 56               PUSH ESI
0x1001e32c 8b752c           MOV ESI, [EBP+0x2c]
0x1001e32f 57               PUSH EDI
0x1001e330 56               PUSH ESI
0x1001e331 ff7528           PUSH DWORD [EBP+0x28]
0x1001e334 83c804           OR EAX, 0x4
0x1001e337 ff7524           PUSH DWORD [EBP+0x24]
0x1001e33a ff7520           PUSH DWORD [EBP+0x20]

************************************************************************
Hook mode: Usermode
Hook type: Import Address Table (IAT)
Process: 3372 (TPAutoConnect.e)
Victim module: ole32.dll (0x774e0000 - 0x7761e000)
Function: user32.dll!GetMessageW
Hook address: 0x1002dbd7
Hooking module: <unknown>

Disassembly(0):
0x1002dbd7 55               PUSH EBP
0x1002dbd8 8bec             MOV EBP, ESP
0x1002dbda 833d5c00091000   CMP DWORD [0x1009005c], 0x0
0x1002dbe1 56               PUSH ESI
0x1002dbe2 8b7508           MOV ESI, [EBP+0x8]
0x1002dbe5 57               PUSH EDI
0x1002dbe6 7412             JZ 0x1002dbfa
0x1002dbe8 8b4604           MOV EAX, [ESI+0x4]
0x1002dbeb 83f812           CMP EAX, 0x12
0x1002dbee 74               DB 0x74

************************************************************************
Hook mode: Usermode
Hook type: Import Address Table (IAT)
Process: 3372 (TPAutoConnect.e)
Victim module: USERENV.dll (0x769c0000 - 0x76a74000)
Function: kernel32.dll!CreateProcessW
Hook address: 0x1001e325
Hooking module: <unknown>

Disassembly(0):
0x1001e325 55               PUSH EBP
0x1001e326 8bec             MOV EBP, ESP
0x1001e328 8b451c           MOV EAX, [EBP+0x1c]
0x1001e32b 56               PUSH ESI
0x1001e32c 8b752c           MOV ESI, [EBP+0x2c]
0x1001e32f 57               PUSH EDI
0x1001e330 56               PUSH ESI
0x1001e331 ff7528           PUSH DWORD [EBP+0x28]
0x1001e334 83c804           OR EAX, 0x4
0x1001e337 ff7524           PUSH DWORD [EBP+0x24]
0x1001e33a ff7520           PUSH DWORD [EBP+0x20]

************************************************************************
Hook mode: Usermode
Hook type: Import Address Table (IAT)
Process: 3372 (TPAutoConnect.e)
Victim module: COMCTL32.dll (0x773d0000 - 0x774d3000)
Function: user32.dll!GetMessageW
Hook address: 0x1002dbd7
Hooking module: <unknown>

Disassembly(0):
0x1002dbd7 55               PUSH EBP
0x1002dbd8 8bec             MOV EBP, ESP
0x1002dbda 833d5c00091000   CMP DWORD [0x1009005c], 0x0
0x1002dbe1 56               PUSH ESI
0x1002dbe2 8b7508           MOV ESI, [EBP+0x8]
0x1002dbe5 57               PUSH EDI
0x1002dbe6 7412             JZ 0x1002dbfa
0x1002dbe8 8b4604           MOV EAX, [ESI+0x4]
0x1002dbeb 83f812           CMP EAX, 0x12
0x1002dbee 74               DB 0x74

************************************************************************
Hook mode: Usermode
Hook type: Import Address Table (IAT)
Process: 3372 (TPAutoConnect.e)
Victim module: SHLWAPI.dll (0x77f60000 - 0x77fd6000)
Function: kernel32.dll!CreateProcessA
Hook address: 0x1001e2e0
Hooking module: <unknown>

Disassembly(0):
0x1001e2e0 55               PUSH EBP
0x1001e2e1 8bec             MOV EBP, ESP
0x1001e2e3 8b451c           MOV EAX, [EBP+0x1c]
0x1001e2e6 56               PUSH ESI
0x1001e2e7 8b752c           MOV ESI, [EBP+0x2c]
0x1001e2ea 57               PUSH EDI
0x1001e2eb 56               PUSH ESI
0x1001e2ec ff7528           PUSH DWORD [EBP+0x28]
0x1001e2ef 83c804           OR EAX, 0x4
0x1001e2f2 ff7524           PUSH DWORD [EBP+0x24]
0x1001e2f5 ff7520           PUSH DWORD [EBP+0x20]

************************************************************************
Hook mode: Usermode
Hook type: Import Address Table (IAT)
Process: 3372 (TPAutoConnect.e)
Victim module: SHLWAPI.dll (0x77f60000 - 0x77fd6000)
Function: kernel32.dll!CreateProcessW
Hook address: 0x1001e325
Hooking module: <unknown>

Disassembly(0):
0x1001e325 55               PUSH EBP
0x1001e326 8bec             MOV EBP, ESP
0x1001e328 8b451c           MOV EAX, [EBP+0x1c]
0x1001e32b 56               PUSH ESI
0x1001e32c 8b752c           MOV ESI, [EBP+0x2c]
0x1001e32f 57               PUSH EDI
0x1001e330 56               PUSH ESI
0x1001e331 ff7528           PUSH DWORD [EBP+0x28]
0x1001e334 83c804           OR EAX, 0x4
0x1001e337 ff7524           PUSH DWORD [EBP+0x24]
0x1001e33a ff7520           PUSH DWORD [EBP+0x20]

************************************************************************
Hook mode: Usermode
Hook type: Import Address Table (IAT)
Process: 3372 (TPAutoConnect.e)
Victim module: SHLWAPI.dll (0x77f60000 - 0x77fd6000)
Function: user32.dll!GetMessageW
Hook address: 0x1002dbd7
Hooking module: <unknown>

Disassembly(0):
0x1002dbd7 55               PUSH EBP
0x1002dbd8 8bec             MOV EBP, ESP
0x1002dbda 833d5c00091000   CMP DWORD [0x1009005c], 0x0
0x1002dbe1 56               PUSH ESI
0x1002dbe2 8b7508           MOV ESI, [EBP+0x8]
0x1002dbe5 57               PUSH EDI
0x1002dbe6 7412             JZ 0x1002dbfa
0x1002dbe8 8b4604           MOV EAX, [ESI+0x4]
0x1002dbeb 83f812           CMP EAX, 0x12
0x1002dbee 74               DB 0x74

************************************************************************
Hook mode: Usermode
Hook type: Import Address Table (IAT)
Process: 3372 (TPAutoConnect.e)
Victim module: SHELL32.dll (0x7c9c0000 - 0x7d1d7000)
Function: kernel32.dll!CreateProcessW
Hook address: 0x1001e325
Hooking module: <unknown>

Disassembly(0):
0x1001e325 55               PUSH EBP
0x1001e326 8bec             MOV EBP, ESP
0x1001e328 8b451c           MOV EAX, [EBP+0x1c]
0x1001e32b 56               PUSH ESI
0x1001e32c 8b752c           MOV ESI, [EBP+0x2c]
0x1001e32f 57               PUSH EDI
0x1001e330 56               PUSH ESI
0x1001e331 ff7528           PUSH DWORD [EBP+0x28]
0x1001e334 83c804           OR EAX, 0x4
0x1001e337 ff7524           PUSH DWORD [EBP+0x24]
0x1001e33a ff7520           PUSH DWORD [EBP+0x20]

************************************************************************
Hook mode: Usermode
Hook type: Import Address Table (IAT)
Process: 3372 (TPAutoConnect.e)
Victim module: SHELL32.dll (0x7c9c0000 - 0x7d1d7000)
Function: ntdll.dll!NtEnumerateValueKey
Hook address: 0x1001ec38
Hooking module: <unknown>

Disassembly(0):
0x1001ec38 55               PUSH EBP
0x1001ec39 8bec             MOV EBP, ESP
0x1001ec3b 83ec18           SUB ESP, 0x18
0x1001ec3e 837d0c00         CMP DWORD [EBP+0xc], 0x0
0x1001ec42 7507             JNZ 0x1001ec4b
0x1001ec44 83254cff081000   AND DWORD [0x1008ff4c], 0x0
0x1001ec4b 53               PUSH EBX
0x1001ec4c 8b5d14           MOV EBX, [EBP+0x14]
0x1001ec4f 56               PUSH ESI

************************************************************************
Hook mode: Usermode
Hook type: Import Address Table (IAT)
Process: 3372 (TPAutoConnect.e)
Victim module: SHELL32.dll (0x7c9c0000 - 0x7d1d7000)
Function: user32.dll!GetMessageW
Hook address: 0x1002dbd7
Hooking module: <unknown>

Disassembly(0):
0x1002dbd7 55               PUSH EBP
0x1002dbd8 8bec             MOV EBP, ESP
0x1002dbda 833d5c00091000   CMP DWORD [0x1009005c], 0x0
0x1002dbe1 56               PUSH ESI
0x1002dbe2 8b7508           MOV ESI, [EBP+0x8]
0x1002dbe5 57               PUSH EDI
0x1002dbe6 7412             JZ 0x1002dbfa
0x1002dbe8 8b4604           MOV EAX, [ESI+0x4]
0x1002dbeb 83f812           CMP EAX, 0x12
0x1002dbee 74               DB 0x74

************************************************************************
Hook mode: Usermode
Hook type: Import Address Table (IAT)
Process: 3372 (TPAutoConnect.e)
Victim module: SHELL32.dll (0x7c9c0000 - 0x7d1d7000)
Function: user32.dll!ExitWindowsEx
Hook address: 0x1002db80
Hooking module: <unknown>

Disassembly(0):
0x1002db80 55               PUSH EBP
0x1002db81 8bec             MOV EBP, ESP
0x1002db83 51               PUSH ECX
0x1002db84 56               PUSH ESI
0x1002db85 ff152c140610     CALL DWORD [0x1006142c]
0x1002db8b 2b0518000910     SUB EAX, [0x10090018]
0x1002db91 3dc0d40100       CMP EAX, 0x1d4c0
0x1002db96 762d             JBE 0x1002dbc5

************************************************************************
Hook mode: Usermode
Hook type: Import Address Table (IAT)
Process: 3372 (TPAutoConnect.e)
Victim module: WINSPOOL.DRV (0x73000000 - 0x73026000)
Function: kernel32.dll!CreateProcessW
Hook address: 0x1001e325
Hooking module: <unknown>

Disassembly(0):
0x1001e325 55               PUSH EBP
0x1001e326 8bec             MOV EBP, ESP
0x1001e328 8b451c           MOV EAX, [EBP+0x1c]
0x1001e32b 56               PUSH ESI
0x1001e32c 8b752c           MOV ESI, [EBP+0x2c]
0x1001e32f 57               PUSH EDI
0x1001e330 56               PUSH ESI
0x1001e331 ff7528           PUSH DWORD [EBP+0x28]
0x1001e334 83c804           OR EAX, 0x4
0x1001e337 ff7524           PUSH DWORD [EBP+0x24]
0x1001e33a ff7520           PUSH DWORD [EBP+0x20]

************************************************************************
Hook mode: Usermode
Hook type: Import Address Table (IAT)
Process: 3372 (TPAutoConnect.e)
Victim module: WINSPOOL.DRV (0x73000000 - 0x73026000)
Function: user32.dll!GetMessageW
Hook address: 0x1002dbd7
Hooking module: <unknown>

Disassembly(0):
0x1002dbd7 55               PUSH EBP
0x1002dbd8 8bec             MOV EBP, ESP
0x1002dbda 833d5c00091000   CMP DWORD [0x1009005c], 0x0
0x1002dbe1 56               PUSH ESI
0x1002dbe2 8b7508           MOV ESI, [EBP+0x8]
0x1002dbe5 57               PUSH EDI
0x1002dbe6 7412             JZ 0x1002dbfa
0x1002dbe8 8b4604           MOV EAX, [ESI+0x4]
0x1002dbeb 83f812           CMP EAX, 0x12
0x1002dbee 74               DB 0x74

************************************************************************
Hook mode: Usermode
Hook type: Import Address Table (IAT)
Process: 3372 (TPAutoConnect.e)
Victim module: WS2HELP.dll (0x71aa0000 - 0x71aa8000)
Function: ntdll.dll!NtQueryDirectoryFile
Hook address: 0x1001e6b0
Hooking module: <unknown>

Disassembly(0):
0x1001e6b0 b889ce0510       MOV EAX, 0x1005ce89
0x1001e6b5 e8426b0300       CALL 0x100551fc
0x1001e6ba 51               PUSH ECX
0x1001e6bb b868110000       MOV EAX, 0x1168
0x1001e6c0 e81bdf0200       CALL 0x1004c5e0
0x1001e6c5 53               PUSH EBX
0x1001e6c6 56               PUSH ESI
0x1001e6c7 57               PUSH EDI

************************************************************************
Hook mode: Usermode
Hook type: Import Address Table (IAT)
Process: 3372 (TPAutoConnect.e)
Victim module: NTMARTA.DLL (0x77690000 - 0x776b1000)
Function: ntdll.dll!NtQueryDirectoryFile
Hook address: 0x1001e6b0
Hooking module: <unknown>

Disassembly(0):
0x1001e6b0 b889ce0510       MOV EAX, 0x1005ce89
0x1001e6b5 e8426b0300       CALL 0x100551fc
0x1001e6ba 51               PUSH ECX
0x1001e6bb b868110000       MOV EAX, 0x1168
0x1001e6c0 e81bdf0200       CALL 0x1004c5e0
0x1001e6c5 53               PUSH EBX
0x1001e6c6 56               PUSH ESI
0x1001e6c7 57               PUSH EDI

************************************************************************
Hook mode: Usermode
Hook type: Import Address Table (IAT)
Process: 3372 (TPAutoConnect.e)
Victim module: MSCTF.dll (0x74720000 - 0x7476c000)
Function: kernel32.dll!CreateProcessA
Hook address: 0x1001e2e0
Hooking module: <unknown>

Disassembly(0):
0x1001e2e0 55               PUSH EBP
0x1001e2e1 8bec             MOV EBP, ESP
0x1001e2e3 8b451c           MOV EAX, [EBP+0x1c]
0x1001e2e6 56               PUSH ESI
0x1001e2e7 8b752c           MOV ESI, [EBP+0x2c]
0x1001e2ea 57               PUSH EDI
0x1001e2eb 56               PUSH ESI
0x1001e2ec ff7528           PUSH DWORD [EBP+0x28]
0x1001e2ef 83c804           OR EAX, 0x4
0x1001e2f2 ff7524           PUSH DWORD [EBP+0x24]
0x1001e2f5 ff7520           PUSH DWORD [EBP+0x20]

************************************************************************
Hook mode: Usermode
Hook type: Import Address Table (IAT)
Process: 3372 (TPAutoConnect.e)
Victim module: MSCTF.dll (0x74720000 - 0x7476c000)
Function: user32.dll!GetMessageW
Hook address: 0x1002dbd7
Hooking module: <unknown>

Disassembly(0):
0x1002dbd7 55               PUSH EBP
0x1002dbd8 8bec             MOV EBP, ESP
0x1002dbda 833d5c00091000   CMP DWORD [0x1009005c], 0x0
0x1002dbe1 56               PUSH ESI
0x1002dbe2 8b7508           MOV ESI, [EBP+0x8]
0x1002dbe5 57               PUSH EDI
0x1002dbe6 7412             JZ 0x1002dbfa
0x1002dbe8 8b4604           MOV EAX, [ESI+0x4]
0x1002dbeb 83f812           CMP EAX, 0x12
0x1002dbee 74               DB 0x74

************************************************************************
Hook mode: Usermode
Hook type: Import Address Table (IAT)
Process: 3372 (TPAutoConnect.e)
Victim module: iertutil.dll (0x3dfd0000 - 0x3e015000)
Function: user32.dll!GetMessageW
Hook address: 0x1002dbd7
Hooking module: <unknown>

Disassembly(0):
0x1002dbd7 55               PUSH EBP
0x1002dbd8 8bec             MOV EBP, ESP
0x1002dbda 833d5c00091000   CMP DWORD [0x1009005c], 0x0
0x1002dbe1 56               PUSH ESI
0x1002dbe2 8b7508           MOV ESI, [EBP+0x8]
0x1002dbe5 57               PUSH EDI
0x1002dbe6 7412             JZ 0x1002dbfa
0x1002dbe8 8b4604           MOV EAX, [ESI+0x4]
0x1002dbeb 83f812           CMP EAX, 0x12
0x1002dbee 74               DB 0x74

************************************************************************
Hook mode: Usermode
Hook type: Import Address Table (IAT)
Process: 3756 (cmd.exe)
Victim module: cmd.exe (0x4ad00000 - 0x4ad61000)
Function: kernel32.dll!CreateProcessW
Hook address: 0x1001e325
Hooking module: <unknown>

Disassembly(0):
0x1001e325 55               PUSH EBP
0x1001e326 8bec             MOV EBP, ESP
0x1001e328 8b451c           MOV EAX, [EBP+0x1c]
0x1001e32b 56               PUSH ESI
0x1001e32c 8b752c           MOV ESI, [EBP+0x2c]
0x1001e32f 57               PUSH EDI
0x1001e330 56               PUSH ESI
0x1001e331 ff7528           PUSH DWORD [EBP+0x28]
0x1001e334 83c804           OR EAX, 0x4
0x1001e337 ff7524           PUSH DWORD [EBP+0x24]
0x1001e33a ff7520           PUSH DWORD [EBP+0x20]

************************************************************************
Hook mode: Usermode
Hook type: Import Address Table (IAT)
Process: 3756 (cmd.exe)
Victim module: kernel32.dll (0x7c800000 - 0x7c8f6000)
Function: ntdll.dll!NtEnumerateValueKey
Hook address: 0x1001ec38
Hooking module: <unknown>

Disassembly(0):
0x1001ec38 55               PUSH EBP
0x1001ec39 8bec             MOV EBP, ESP
0x1001ec3b 83ec18           SUB ESP, 0x18
0x1001ec3e 837d0c00         CMP DWORD [EBP+0xc], 0x0
0x1001ec42 7507             JNZ 0x1001ec4b
0x1001ec44 83254cff081000   AND DWORD [0x1008ff4c], 0x0
0x1001ec4b 53               PUSH EBX
0x1001ec4c 8b5d14           MOV EBX, [EBP+0x14]
0x1001ec4f 56               PUSH ESI

************************************************************************
Hook mode: Usermode
Hook type: Import Address Table (IAT)
Process: 3756 (cmd.exe)
Victim module: kernel32.dll (0x7c800000 - 0x7c8f6000)
Function: ntdll.dll!NtQueryDirectoryFile
Hook address: 0x1001e6b0
Hooking module: <unknown>

Disassembly(0):
0x1001e6b0 b889ce0510       MOV EAX, 0x1005ce89
0x1001e6b5 e8426b0300       CALL 0x100551fc
0x1001e6ba 51               PUSH ECX
0x1001e6bb b868110000       MOV EAX, 0x1168
0x1001e6c0 e81bdf0200       CALL 0x1004c5e0
0x1001e6c5 53               PUSH EBX
0x1001e6c6 56               PUSH ESI
0x1001e6c7 57               PUSH EDI

************************************************************************
Hook mode: Usermode
Hook type: Import Address Table (IAT)
Process: 3756 (cmd.exe)
Victim module: msvcrt.dll (0x77c10000 - 0x77c68000)
Function: kernel32.dll!CreateProcessA
Hook address: 0x1001e2e0
Hooking module: <unknown>

Disassembly(0):
0x1001e2e0 55               PUSH EBP
0x1001e2e1 8bec             MOV EBP, ESP
0x1001e2e3 8b451c           MOV EAX, [EBP+0x1c]
0x1001e2e6 56               PUSH ESI
0x1001e2e7 8b752c           MOV ESI, [EBP+0x2c]
0x1001e2ea 57               PUSH EDI
0x1001e2eb 56               PUSH ESI
0x1001e2ec ff7528           PUSH DWORD [EBP+0x28]
0x1001e2ef 83c804           OR EAX, 0x4
0x1001e2f2 ff7524           PUSH DWORD [EBP+0x24]
0x1001e2f5 ff7520           PUSH DWORD [EBP+0x20]

************************************************************************
Hook mode: Usermode
Hook type: Import Address Table (IAT)
Process: 3756 (cmd.exe)
Victim module: msvcrt.dll (0x77c10000 - 0x77c68000)
Function: kernel32.dll!CreateProcessW
Hook address: 0x1001e325
Hooking module: <unknown>

Disassembly(0):
0x1001e325 55               PUSH EBP
0x1001e326 8bec             MOV EBP, ESP
0x1001e328 8b451c           MOV EAX, [EBP+0x1c]
0x1001e32b 56               PUSH ESI
0x1001e32c 8b752c           MOV ESI, [EBP+0x2c]
0x1001e32f 57               PUSH EDI
0x1001e330 56               PUSH ESI
0x1001e331 ff7528           PUSH DWORD [EBP+0x28]
0x1001e334 83c804           OR EAX, 0x4
0x1001e337 ff7524           PUSH DWORD [EBP+0x24]
0x1001e33a ff7520           PUSH DWORD [EBP+0x20]

************************************************************************
Hook mode: Usermode
Hook type: Import Address Table (IAT)
Process: 3756 (cmd.exe)
Victim module: USER32.dll (0x7e410000 - 0x7e4a1000)
Function: ntdll.dll!NtEnumerateValueKey
Hook address: 0x1001ec38
Hooking module: <unknown>

Disassembly(0):
0x1001ec38 55               PUSH EBP
0x1001ec39 8bec             MOV EBP, ESP
0x1001ec3b 83ec18           SUB ESP, 0x18
0x1001ec3e 837d0c00         CMP DWORD [EBP+0xc], 0x0
0x1001ec42 7507             JNZ 0x1001ec4b
0x1001ec44 83254cff081000   AND DWORD [0x1008ff4c], 0x0
0x1001ec4b 53               PUSH EBX
0x1001ec4c 8b5d14           MOV EBX, [EBP+0x14]
0x1001ec4f 56               PUSH ESI

************************************************************************
Hook mode: Usermode
Hook type: Import Address Table (IAT)
Process: 3756 (cmd.exe)
Victim module: USER32.dll (0x7e410000 - 0x7e4a1000)
Function: kernel32.dll!CreateProcessW
Hook address: 0x1001e325
Hooking module: <unknown>

Disassembly(0):
0x1001e325 55               PUSH EBP
0x1001e326 8bec             MOV EBP, ESP
0x1001e328 8b451c           MOV EAX, [EBP+0x1c]
0x1001e32b 56               PUSH ESI
0x1001e32c 8b752c           MOV ESI, [EBP+0x2c]
0x1001e32f 57               PUSH EDI
0x1001e330 56               PUSH ESI
0x1001e331 ff7528           PUSH DWORD [EBP+0x28]
0x1001e334 83c804           OR EAX, 0x4
0x1001e337 ff7524           PUSH DWORD [EBP+0x24]
0x1001e33a ff7520           PUSH DWORD [EBP+0x20]

************************************************************************
Hook mode: Usermode
Hook type: Import Address Table (IAT)
Process: 3756 (cmd.exe)
Victim module: ShimEng.dll (0x5cb70000 - 0x5cb96000)
Function: kernel32.dll!CreateProcessW
Hook address: 0x1001e325
Hooking module: <unknown>

Disassembly(0):
0x1001e325 55               PUSH EBP
0x1001e326 8bec             MOV EBP, ESP
0x1001e328 8b451c           MOV EAX, [EBP+0x1c]
0x1001e32b 56               PUSH ESI
0x1001e32c 8b752c           MOV ESI, [EBP+0x2c]
0x1001e32f 57               PUSH EDI
0x1001e330 56               PUSH ESI
0x1001e331 ff7528           PUSH DWORD [EBP+0x28]
0x1001e334 83c804           OR EAX, 0x4
0x1001e337 ff7524           PUSH DWORD [EBP+0x24]
0x1001e33a ff7520           PUSH DWORD [EBP+0x20]

************************************************************************
Hook mode: Usermode
Hook type: Import Address Table (IAT)
Process: 3756 (cmd.exe)
Victim module: AcGenral.DLL (0x6f880000 - 0x6fa4a000)
Function: kernel32.dll!CreateProcessW
Hook address: 0x1001e325
Hooking module: <unknown>

Disassembly(0):
0x1001e325 55               PUSH EBP
0x1001e326 8bec             MOV EBP, ESP
0x1001e328 8b451c           MOV EAX, [EBP+0x1c]
0x1001e32b 56               PUSH ESI
0x1001e32c 8b752c           MOV ESI, [EBP+0x2c]
0x1001e32f 57               PUSH EDI
0x1001e330 56               PUSH ESI
0x1001e331 ff7528           PUSH DWORD [EBP+0x28]
0x1001e334 83c804           OR EAX, 0x4
0x1001e337 ff7524           PUSH DWORD [EBP+0x24]
0x1001e33a ff7520           PUSH DWORD [EBP+0x20]

************************************************************************
Hook mode: Usermode
Hook type: Import Address Table (IAT)
Process: 3756 (cmd.exe)
Victim module: AcGenral.DLL (0x6f880000 - 0x6fa4a000)
Function: kernel32.dll!CreateProcessA
Hook address: 0x1001e2e0
Hooking module: <unknown>

Disassembly(0):
0x1001e2e0 55               PUSH EBP
0x1001e2e1 8bec             MOV EBP, ESP
0x1001e2e3 8b451c           MOV EAX, [EBP+0x1c]
0x1001e2e6 56               PUSH ESI
0x1001e2e7 8b752c           MOV ESI, [EBP+0x2c]
0x1001e2ea 57               PUSH EDI
0x1001e2eb 56               PUSH ESI
0x1001e2ec ff7528           PUSH DWORD [EBP+0x28]
0x1001e2ef 83c804           OR EAX, 0x4
0x1001e2f2 ff7524           PUSH DWORD [EBP+0x24]
0x1001e2f5 ff7520           PUSH DWORD [EBP+0x20]

************************************************************************
Hook mode: Usermode
Hook type: Import Address Table (IAT)
Process: 3756 (cmd.exe)
Victim module: AcGenral.DLL (0x6f880000 - 0x6fa4a000)
Function: user32.dll!GetMessageW
Hook address: 0x1002dbd7
Hooking module: <unknown>

Disassembly(0):
0x1002dbd7 55               PUSH EBP
0x1002dbd8 8bec             MOV EBP, ESP
0x1002dbda 833d5c00091000   CMP DWORD [0x1009005c], 0x0
0x1002dbe1 56               PUSH ESI
0x1002dbe2 8b7508           MOV ESI, [EBP+0x8]
0x1002dbe5 57               PUSH EDI
0x1002dbe6 7412             JZ 0x1002dbfa
0x1002dbe8 8b4604           MOV EAX, [ESI+0x4]
0x1002dbeb 83f812           CMP EAX, 0x12
0x1002dbee 74               DB 0x74

************************************************************************
Hook mode: Usermode
Hook type: Import Address Table (IAT)
Process: 3756 (cmd.exe)
Victim module: ADVAPI32.dll (0x77dd0000 - 0x77e6b000)
Function: ntdll.dll!NtEnumerateValueKey
Hook address: 0x1001ec38
Hooking module: <unknown>

Disassembly(0):
0x1001ec38 55               PUSH EBP
0x1001ec39 8bec             MOV EBP, ESP
0x1001ec3b 83ec18           SUB ESP, 0x18
0x1001ec3e 837d0c00         CMP DWORD [EBP+0xc], 0x0
0x1001ec42 7507             JNZ 0x1001ec4b
0x1001ec44 83254cff081000   AND DWORD [0x1008ff4c], 0x0
0x1001ec4b 53               PUSH EBX
0x1001ec4c 8b5d14           MOV EBX, [EBP+0x14]
0x1001ec4f 56               PUSH ESI

************************************************************************
Hook mode: Usermode
Hook type: Import Address Table (IAT)
Process: 3756 (cmd.exe)
Victim module: ole32.dll (0x774e0000 - 0x7761e000)
Function: kernel32.dll!CreateProcessW
Hook address: 0x1001e325
Hooking module: <unknown>

Disassembly(0):
0x1001e325 55               PUSH EBP
0x1001e326 8bec             MOV EBP, ESP
0x1001e328 8b451c           MOV EAX, [EBP+0x1c]
0x1001e32b 56               PUSH ESI
0x1001e32c 8b752c           MOV ESI, [EBP+0x2c]
0x1001e32f 57               PUSH EDI
0x1001e330 56               PUSH ESI
0x1001e331 ff7528           PUSH DWORD [EBP+0x28]
0x1001e334 83c804           OR EAX, 0x4
0x1001e337 ff7524           PUSH DWORD [EBP+0x24]
0x1001e33a ff7520           PUSH DWORD [EBP+0x20]

************************************************************************
Hook mode: Usermode
Hook type: Import Address Table (IAT)
Process: 3756 (cmd.exe)
Victim module: ole32.dll (0x774e0000 - 0x7761e000)
Function: user32.dll!GetMessageW
Hook address: 0x1002dbd7
Hooking module: <unknown>

Disassembly(0):
0x1002dbd7 55               PUSH EBP
0x1002dbd8 8bec             MOV EBP, ESP
0x1002dbda 833d5c00091000   CMP DWORD [0x1009005c], 0x0
0x1002dbe1 56               PUSH ESI
0x1002dbe2 8b7508           MOV ESI, [EBP+0x8]
0x1002dbe5 57               PUSH EDI
0x1002dbe6 7412             JZ 0x1002dbfa
0x1002dbe8 8b4604           MOV EAX, [ESI+0x4]
0x1002dbeb 83f812           CMP EAX, 0x12
0x1002dbee 74               DB 0x74

************************************************************************
Hook mode: Usermode
Hook type: Import Address Table (IAT)
Process: 3756 (cmd.exe)
Victim module: OLEAUT32.dll (0x77120000 - 0x771ab000)
Function: user32.dll!GetMessageW
Hook address: 0x1002dbd7
Hooking module: <unknown>

Disassembly(0):
0x1002dbd7 55               PUSH EBP
0x1002dbd8 8bec             MOV EBP, ESP
0x1002dbda 833d5c00091000   CMP DWORD [0x1009005c], 0x0
0x1002dbe1 56               PUSH ESI
0x1002dbe2 8b7508           MOV ESI, [EBP+0x8]
0x1002dbe5 57               PUSH EDI
0x1002dbe6 7412             JZ 0x1002dbfa
0x1002dbe8 8b4604           MOV EAX, [ESI+0x4]
0x1002dbeb 83f812           CMP EAX, 0x12
0x1002dbee 74               DB 0x74

************************************************************************
Hook mode: Usermode
Hook type: Import Address Table (IAT)
Process: 3756 (cmd.exe)
Victim module: SHELL32.dll (0x7c9c0000 - 0x7d1d7000)
Function: kernel32.dll!CreateProcessW
Hook address: 0x1001e325
Hooking module: <unknown>

Disassembly(0):
0x1001e325 55               PUSH EBP
0x1001e326 8bec             MOV EBP, ESP
0x1001e328 8b451c           MOV EAX, [EBP+0x1c]
0x1001e32b 56               PUSH ESI
0x1001e32c 8b752c           MOV ESI, [EBP+0x2c]
0x1001e32f 57               PUSH EDI
0x1001e330 56               PUSH ESI
0x1001e331 ff7528           PUSH DWORD [EBP+0x28]
0x1001e334 83c804           OR EAX, 0x4
0x1001e337 ff7524           PUSH DWORD [EBP+0x24]
0x1001e33a ff7520           PUSH DWORD [EBP+0x20]

************************************************************************
Hook mode: Usermode
Hook type: Import Address Table (IAT)
Process: 3756 (cmd.exe)
Victim module: SHELL32.dll (0x7c9c0000 - 0x7d1d7000)
Function: ntdll.dll!NtEnumerateValueKey
Hook address: 0x1001ec38
Hooking module: <unknown>

Disassembly(0):
0x1001ec38 55               PUSH EBP
0x1001ec39 8bec             MOV EBP, ESP
0x1001ec3b 83ec18           SUB ESP, 0x18
0x1001ec3e 837d0c00         CMP DWORD [EBP+0xc], 0x0
0x1001ec42 7507             JNZ 0x1001ec4b
0x1001ec44 83254cff081000   AND DWORD [0x1008ff4c], 0x0
0x1001ec4b 53               PUSH EBX
0x1001ec4c 8b5d14           MOV EBX, [EBP+0x14]
0x1001ec4f 56               PUSH ESI

************************************************************************
Hook mode: Usermode
Hook type: Import Address Table (IAT)
Process: 3756 (cmd.exe)
Victim module: SHELL32.dll (0x7c9c0000 - 0x7d1d7000)
Function: user32.dll!GetMessageW
Hook address: 0x1002dbd7
Hooking module: <unknown>

Disassembly(0):
0x1002dbd7 55               PUSH EBP
0x1002dbd8 8bec             MOV EBP, ESP
0x1002dbda 833d5c00091000   CMP DWORD [0x1009005c], 0x0
0x1002dbe1 56               PUSH ESI
0x1002dbe2 8b7508           MOV ESI, [EBP+0x8]
0x1002dbe5 57               PUSH EDI
0x1002dbe6 7412             JZ 0x1002dbfa
0x1002dbe8 8b4604           MOV EAX, [ESI+0x4]
0x1002dbeb 83f812           CMP EAX, 0x12
0x1002dbee 74               DB 0x74

************************************************************************
Hook mode: Usermode
Hook type: Import Address Table (IAT)
Process: 3756 (cmd.exe)
Victim module: SHELL32.dll (0x7c9c0000 - 0x7d1d7000)
Function: user32.dll!ExitWindowsEx
Hook address: 0x1002db80
Hooking module: <unknown>

Disassembly(0):
0x1002db80 55               PUSH EBP
0x1002db81 8bec             MOV EBP, ESP
0x1002db83 51               PUSH ECX
0x1002db84 56               PUSH ESI
0x1002db85 ff152c140610     CALL DWORD [0x1006142c]
0x1002db8b 2b0518000910     SUB EAX, [0x10090018]
0x1002db91 3dc0d40100       CMP EAX, 0x1d4c0
0x1002db96 762d             JBE 0x1002dbc5

************************************************************************
Hook mode: Usermode
Hook type: Import Address Table (IAT)
Process: 3756 (cmd.exe)
Victim module: SHLWAPI.dll (0x77f60000 - 0x77fd6000)
Function: kernel32.dll!CreateProcessA
Hook address: 0x1001e2e0
Hooking module: <unknown>

Disassembly(0):
0x1001e2e0 55               PUSH EBP
0x1001e2e1 8bec             MOV EBP, ESP
0x1001e2e3 8b451c           MOV EAX, [EBP+0x1c]
0x1001e2e6 56               PUSH ESI
0x1001e2e7 8b752c           MOV ESI, [EBP+0x2c]
0x1001e2ea 57               PUSH EDI
0x1001e2eb 56               PUSH ESI
0x1001e2ec ff7528           PUSH DWORD [EBP+0x28]
0x1001e2ef 83c804           OR EAX, 0x4
0x1001e2f2 ff7524           PUSH DWORD [EBP+0x24]
0x1001e2f5 ff7520           PUSH DWORD [EBP+0x20]

************************************************************************
Hook mode: Usermode
Hook type: Import Address Table (IAT)
Process: 3756 (cmd.exe)
Victim module: SHLWAPI.dll (0x77f60000 - 0x77fd6000)
Function: kernel32.dll!CreateProcessW
Hook address: 0x1001e325
Hooking module: <unknown>

Disassembly(0):
0x1001e325 55               PUSH EBP
0x1001e326 8bec             MOV EBP, ESP
0x1001e328 8b451c           MOV EAX, [EBP+0x1c]
0x1001e32b 56               PUSH ESI
0x1001e32c 8b752c           MOV ESI, [EBP+0x2c]
0x1001e32f 57               PUSH EDI
0x1001e330 56               PUSH ESI
0x1001e331 ff7528           PUSH DWORD [EBP+0x28]
0x1001e334 83c804           OR EAX, 0x4
0x1001e337 ff7524           PUSH DWORD [EBP+0x24]
0x1001e33a ff7520           PUSH DWORD [EBP+0x20]

************************************************************************
Hook mode: Usermode
Hook type: Import Address Table (IAT)
Process: 3756 (cmd.exe)
Victim module: SHLWAPI.dll (0x77f60000 - 0x77fd6000)
Function: user32.dll!GetMessageW
Hook address: 0x1002dbd7
Hooking module: <unknown>

Disassembly(0):
0x1002dbd7 55               PUSH EBP
0x1002dbd8 8bec             MOV EBP, ESP
0x1002dbda 833d5c00091000   CMP DWORD [0x1009005c], 0x0
0x1002dbe1 56               PUSH ESI
0x1002dbe2 8b7508           MOV ESI, [EBP+0x8]
0x1002dbe5 57               PUSH EDI
0x1002dbe6 7412             JZ 0x1002dbfa
0x1002dbe8 8b4604           MOV EAX, [ESI+0x4]
0x1002dbeb 83f812           CMP EAX, 0x12
0x1002dbee 74               DB 0x74

************************************************************************
Hook mode: Usermode
Hook type: Import Address Table (IAT)
Process: 3756 (cmd.exe)
Victim module: USERENV.dll (0x769c0000 - 0x76a74000)
Function: kernel32.dll!CreateProcessW
Hook address: 0x1001e325
Hooking module: <unknown>

Disassembly(0):
0x1001e325 55               PUSH EBP
0x1001e326 8bec             MOV EBP, ESP
0x1001e328 8b451c           MOV EAX, [EBP+0x1c]
0x1001e32b 56               PUSH ESI
0x1001e32c 8b752c           MOV ESI, [EBP+0x2c]
0x1001e32f 57               PUSH EDI
0x1001e330 56               PUSH ESI
0x1001e331 ff7528           PUSH DWORD [EBP+0x28]
0x1001e334 83c804           OR EAX, 0x4
0x1001e337 ff7524           PUSH DWORD [EBP+0x24]
0x1001e33a ff7520           PUSH DWORD [EBP+0x20]

************************************************************************
Hook mode: Usermode
Hook type: Import Address Table (IAT)
Process: 3756 (cmd.exe)
Victim module: UxTheme.dll (0x5ad70000 - 0x5ada8000)
Function: user32.dll!GetMessageW
Hook address: 0x1002dbd7
Hooking module: <unknown>

Disassembly(0):
0x1002dbd7 55               PUSH EBP
0x1002dbd8 8bec             MOV EBP, ESP
0x1002dbda 833d5c00091000   CMP DWORD [0x1009005c], 0x0
0x1002dbe1 56               PUSH ESI
0x1002dbe2 8b7508           MOV ESI, [EBP+0x8]
0x1002dbe5 57               PUSH EDI
0x1002dbe6 7412             JZ 0x1002dbfa
0x1002dbe8 8b4604           MOV EAX, [ESI+0x4]
0x1002dbeb 83f812           CMP EAX, 0x12
0x1002dbee 74               DB 0x74

************************************************************************
Hook mode: Usermode
Hook type: Import Address Table (IAT)
Process: 3756 (cmd.exe)
Victim module: comctl32.dll (0x5d090000 - 0x5d12a000)
Function: user32.dll!GetMessageW
Hook address: 0x1002dbd7
Hooking module: <unknown>

Disassembly(0):
0x1002dbd7 55               PUSH EBP
0x1002dbd8 8bec             MOV EBP, ESP
0x1002dbda 833d5c00091000   CMP DWORD [0x1009005c], 0x0
0x1002dbe1 56               PUSH ESI
0x1002dbe2 8b7508           MOV ESI, [EBP+0x8]
0x1002dbe5 57               PUSH EDI
0x1002dbe6 7412             JZ 0x1002dbfa
0x1002dbe8 8b4604           MOV EAX, [ESI+0x4]
0x1002dbeb 83f812           CMP EAX, 0x12
0x1002dbee 74               DB 0x74

************************************************************************
Hook mode: Usermode
Hook type: Import Address Table (IAT)
Process: 3756 (cmd.exe)
Victim module: Apphelp.dll (0x77b40000 - 0x77b62000)
Function: ntdll.dll!NtQueryDirectoryFile
Hook address: 0x1001e6b0
Hooking module: <unknown>

Disassembly(0):
0x1001e6b0 b889ce0510       MOV EAX, 0x1005ce89
0x1001e6b5 e8426b0300       CALL 0x100551fc
0x1001e6ba 51               PUSH ECX
0x1001e6bb b868110000       MOV EAX, 0x1168
0x1001e6c0 e81bdf0200       CALL 0x1004c5e0
0x1001e6c5 53               PUSH EBX
0x1001e6c6 56               PUSH ESI
0x1001e6c7 57               PUSH EDI

************************************************************************
Hook mode: Usermode
Hook type: Import Address Table (IAT)
Process: 3756 (cmd.exe)
Victim module: Apphelp.dll (0x77b40000 - 0x77b62000)
Function: ntdll.dll!NtEnumerateValueKey
Hook address: 0x1001ec38
Hooking module: <unknown>

Disassembly(0):
0x1001ec38 55               PUSH EBP
0x1001ec39 8bec             MOV EBP, ESP
0x1001ec3b 83ec18           SUB ESP, 0x18
0x1001ec3e 837d0c00         CMP DWORD [EBP+0xc], 0x0
0x1001ec42 7507             JNZ 0x1001ec4b
0x1001ec44 83254cff081000   AND DWORD [0x1008ff4c], 0x0
0x1001ec4b 53               PUSH EBX
0x1001ec4c 8b5d14           MOV EBX, [EBP+0x14]
0x1001ec4f 56               PUSH ESI

************************************************************************
Hook mode: Usermode
Hook type: Import Address Table (IAT)
Process: 3756 (cmd.exe)
Victim module: Apphelp.dll (0x77b40000 - 0x77b62000)
Function: kernel32.dll!CreateProcessW
Hook address: 0x1001e325
Hooking module: <unknown>

Disassembly(0):
0x1001e325 55               PUSH EBP
0x1001e326 8bec             MOV EBP, ESP
0x1001e328 8b451c           MOV EAX, [EBP+0x1c]
0x1001e32b 56               PUSH ESI
0x1001e32c 8b752c           MOV ESI, [EBP+0x2c]
0x1001e32f 57               PUSH EDI
0x1001e330 56               PUSH ESI
0x1001e331 ff7528           PUSH DWORD [EBP+0x28]
0x1001e334 83c804           OR EAX, 0x4
0x1001e337 ff7524           PUSH DWORD [EBP+0x24]
0x1001e33a ff7520           PUSH DWORD [EBP+0x20]

************************************************************************
Hook mode: Usermode
Hook type: Import Address Table (IAT)
Process: 3756 (cmd.exe)
Victim module: iertutil.dll (0x3dfd0000 - 0x3e015000)
Function: user32.dll!GetMessageW
Hook address: 0x1002dbd7
Hooking module: <unknown>

Disassembly(0):
0x1002dbd7 55               PUSH EBP
0x1002dbd8 8bec             MOV EBP, ESP
0x1002dbda 833d5c00091000   CMP DWORD [0x1009005c], 0x0
0x1002dbe1 56               PUSH ESI
0x1002dbe2 8b7508           MOV ESI, [EBP+0x8]
0x1002dbe5 57               PUSH EDI
0x1002dbe6 7412             JZ 0x1002dbfa
0x1002dbe8 8b4604           MOV EAX, [ESI+0x4]
0x1002dbeb 83f812           CMP EAX, 0x12
0x1002dbee 74               DB 0x74

************************************************************************
Hook mode: Usermode
Hook type: Import Address Table (IAT)
Process: 3756 (cmd.exe)
Victim module: WS2HELP.dll (0x71aa0000 - 0x71aa8000)
Function: ntdll.dll!NtQueryDirectoryFile
Hook address: 0x1001e6b0
Hooking module: <unknown>

Disassembly(0):
0x1001e6b0 b889ce0510       MOV EAX, 0x1005ce89
0x1001e6b5 e8426b0300       CALL 0x100551fc
0x1001e6ba 51               PUSH ECX
0x1001e6bb b868110000       MOV EAX, 0x1168
0x1001e6c0 e81bdf0200       CALL 0x1004c5e0
0x1001e6c5 53               PUSH EBX
0x1001e6c6 56               PUSH ESI
0x1001e6c7 57               PUSH EDI

